---
triple:          'arm64-apple-darwin'
binary-path:     play
relocations:
  - { offsetInCU: 0x4E93, offset: 0x4E93, size: 0x8, addend: 0x0, symName: __ZNSt3__1neB8ne180100IPK4CardEEbRKNS_11__wrap_iterIT_EES8_, symObjAddr: 0x698, symBinAddr: 0x100001040, symSize: 0x34 }
  - { offsetInCU: 0x4ED6, offset: 0x4ED6, size: 0x8, addend: 0x0, symName: __ZNSt3__1plB8ne180100IcNS_11char_traitsIcEENS_9allocatorIcEEEENS_12basic_stringIT_T0_T1_EEPKS6_OS9_, symObjAddr: 0xDB0, symBinAddr: 0x100001758, symSize: 0x44 }
  - { offsetInCU: 0x4F2E, offset: 0x4F2E, size: 0x8, addend: 0x0, symName: __ZNSt3__1eqB8ne180100IPK4CardEEbRKNS_11__wrap_iterIT_EES8_, symObjAddr: 0xE64, symBinAddr: 0x10000180C, symSize: 0x48 }
  - { offsetInCU: 0x4F71, offset: 0x4F71, size: 0x8, addend: 0x0, symName: __ZNSt3__112__to_addressB8ne180100I4CardEEPT_S3_, symObjAddr: 0x12D4, symBinAddr: 0x100001C7C, symSize: 0x14 }
  - { offsetInCU: 0x4FA6, offset: 0x4FA6, size: 0x8, addend: 0x0, symName: __ZNSt3__119__libcpp_deallocateB8ne180100EPvmm, symObjAddr: 0x1340, symBinAddr: 0x100001CE8, symSize: 0x30 }
  - { offsetInCU: 0x4FEE, offset: 0x4FEE, size: 0x8, addend: 0x0, symName: __ZNSt3__127__do_deallocate_handle_sizeB8ne180100IJEEEvPvmDpT_, symObjAddr: 0x1370, symBinAddr: 0x100001D18, symSize: 0x28 }
  - { offsetInCU: 0x502C, offset: 0x502C, size: 0x8, addend: 0x0, symName: __ZNSt3__124__libcpp_operator_deleteB8ne180100IJPvEEEvDpT_, symObjAddr: 0x1398, symBinAddr: 0x100001D40, symSize: 0x24 }
  - { offsetInCU: 0x5061, offset: 0x5061, size: 0x8, addend: 0x0, symName: __ZNSt3__13maxB8ne180100ImEERKT_S3_S3_, symObjAddr: 0x1A50, symBinAddr: 0x1000023F8, symSize: 0x2C }
  - { offsetInCU: 0x50A4, offset: 0x50A4, size: 0x8, addend: 0x0, symName: __ZNSt3__13minB8ne180100ImEERKT_S3_S3_, symObjAddr: 0x1A7C, symBinAddr: 0x100002424, symSize: 0x2C }
  - { offsetInCU: 0x52E8, offset: 0x52E8, size: 0x8, addend: 0x0, symName: __ZNSt3__13minB8ne180100ImNS_6__lessIvvEEEERKT_S5_S5_T0_, symObjAddr: 0x1B08, symBinAddr: 0x1000024B0, symSize: 0x54 }
  - { offsetInCU: 0x5387, offset: 0x5387, size: 0x8, addend: 0x0, symName: __ZNSt3__120__throw_length_errorB8ne180100EPKc, symObjAddr: 0x1BE8, symBinAddr: 0x100002590, symSize: 0x64 }
  - { offsetInCU: 0x53AF, offset: 0x53AF, size: 0x8, addend: 0x0, symName: __ZNSt3__13maxB8ne180100ImNS_6__lessIvvEEEERKT_S5_S5_T0_, symObjAddr: 0x1CCC, symBinAddr: 0x100002674, symSize: 0x54 }
  - { offsetInCU: 0x5409, offset: 0x5409, size: 0x8, addend: 0x0, symName: __ZNSt3__119__allocate_at_leastB8ne180100INS_9allocatorI4CardEEEENS_19__allocation_resultINS_16allocator_traitsIT_E7pointerEEERS6_m, symObjAddr: 0x1E3C, symBinAddr: 0x1000027E4, symSize: 0x40 }
  - { offsetInCU: 0x544C, offset: 0x544C, size: 0x8, addend: 0x0, symName: __ZNSt3__117__libcpp_allocateB8ne180100Emm, symObjAddr: 0x1FC4, symBinAddr: 0x10000296C, symSize: 0x28 }
  - { offsetInCU: 0x5489, offset: 0x5489, size: 0x8, addend: 0x0, symName: __ZNSt3__121__libcpp_operator_newB8ne180100IJmEEEPvDpT_, symObjAddr: 0x1FEC, symBinAddr: 0x100002994, symSize: 0x24 }
  - { offsetInCU: 0x54C2, offset: 0x54C2, size: 0x8, addend: 0x0, symName: __ZNSt3__142__uninitialized_allocator_move_if_noexceptB8ne180100INS_9allocatorI4CardEENS_16reverse_iteratorIPS2_EES6_S2_vEET1_RT_T0_SA_S7_, symObjAddr: 0x2074, symBinAddr: 0x100002A1C, symSize: 0x78 }
  - { offsetInCU: 0x553F, offset: 0x553F, size: 0x8, addend: 0x0, symName: __ZNSt3__14swapB8ne180100IP4CardEENS_9enable_ifIXaasr21is_move_constructibleIT_EE5valuesr18is_move_assignableIS4_EE5valueEvE4typeERS4_S7_, symObjAddr: 0x2138, symBinAddr: 0x100002AE0, symSize: 0x3C }
  - { offsetInCU: 0x5590, offset: 0x5590, size: 0x8, addend: 0x0, symName: __ZNSt3__14moveB8ne180100INS_16reverse_iteratorIP4CardEES4_EET0_T_S6_S5_, symObjAddr: 0x2188, symBinAddr: 0x100002B30, symSize: 0x78 }
  - { offsetInCU: 0x55EA, offset: 0x55EA, size: 0x8, addend: 0x0, symName: __ZNSt3__16__moveB8ne180100INS_17_ClassicAlgPolicyENS_16reverse_iteratorIP4CardEES5_S5_EENS_4pairIT0_T2_EES7_T1_S8_, symObjAddr: 0x2200, symBinAddr: 0x100002BA8, symSize: 0x64 }
  - { offsetInCU: 0x5656, offset: 0x5656, size: 0x8, addend: 0x0, symName: __ZNSt3__123__dispatch_copy_or_moveB8ne180100INS_17_ClassicAlgPolicyENS_11__move_loopIS1_EENS_14__move_trivialENS_16reverse_iteratorIP4CardEES8_S8_EENS_4pairIT2_T4_EESA_T3_SB_, symObjAddr: 0x2264, symBinAddr: 0x100002C0C, symSize: 0x64 }
  - { offsetInCU: 0x56D4, offset: 0x56D4, size: 0x8, addend: 0x0, symName: __ZNSt3__121__unwrap_and_dispatchB8ne180100INS_10__overloadINS_11__move_loopINS_17_ClassicAlgPolicyEEENS_14__move_trivialEEENS_16reverse_iteratorIP4CardEESA_SA_Li0EEENS_4pairIT0_T2_EESC_T1_SD_, symObjAddr: 0x22C8, symBinAddr: 0x100002C70, symSize: 0x12C }
  - { offsetInCU: 0x5764, offset: 0x5764, size: 0x8, addend: 0x0, symName: __ZNSt3__114__unwrap_rangeB8ne180100INS_16reverse_iteratorIP4CardEES4_EENS_4pairIT0_S6_EET_S8_, symObjAddr: 0x23F4, symBinAddr: 0x100002D9C, symSize: 0x84 }
  - { offsetInCU: 0x58DF, offset: 0x58DF, size: 0x8, addend: 0x0, symName: __ZNSt3__113__unwrap_iterB8ne180100INS_16reverse_iteratorIP4CardEENS_18__unwrap_iter_implIS4_Lb0EEELi0EEEDTclsrT0_8__unwrapclsr3stdE7declvalIT_EEEES8_, symObjAddr: 0x2520, symBinAddr: 0x100002EC8, symSize: 0x44 }
  - { offsetInCU: 0x5923, offset: 0x5923, size: 0x8, addend: 0x0, symName: __ZNSt3__19make_pairB8ne180100INS_16reverse_iteratorIP4CardEES4_EENS_4pairINS_18__unwrap_ref_decayIT_E4typeENS6_IT0_E4typeEEEOS7_OSA_, symObjAddr: 0x2564, symBinAddr: 0x100002F0C, symSize: 0x38 }
  - { offsetInCU: 0x5972, offset: 0x5972, size: 0x8, addend: 0x0, symName: __ZNSt3__114__rewrap_rangeB8ne180100INS_16reverse_iteratorIP4CardEES4_EET_S5_T0_, symObjAddr: 0x259C, symBinAddr: 0x100002F44, symSize: 0x5C }
  - { offsetInCU: 0x59BE, offset: 0x59BE, size: 0x8, addend: 0x0, symName: __ZNSt3__113__rewrap_iterB8ne180100INS_16reverse_iteratorIP4CardEES4_NS_18__unwrap_iter_implIS4_Lb0EEEEET_S7_T0_, symObjAddr: 0x25F8, symBinAddr: 0x100002FA0, symSize: 0x74 }
  - { offsetInCU: 0x5A13, offset: 0x5A13, size: 0x8, addend: 0x0, symName: __ZNSt3__1neB8ne180100IP4CardS2_EEbRKNS_16reverse_iteratorIT_EERKNS3_IT0_EE, symObjAddr: 0x266C, symBinAddr: 0x100003014, symSize: 0x48 }
  - { offsetInCU: 0x5B09, offset: 0x5B09, size: 0x8, addend: 0x0, symName: __ZNSt3__118__constexpr_strlenB8ne180100EPKc, symObjAddr: 0x2EAC, symBinAddr: 0x100003854, symSize: 0x24 }
  - { offsetInCU: 0x5E00, offset: 0x5E00, size: 0x8, addend: 0x0, symName: __ZSt28__throw_bad_array_new_lengthB8ne180100v, symObjAddr: 0x1F90, symBinAddr: 0x100002938, symSize: 0x34 }
  - { offsetInCU: 0x638E, offset: 0x638E, size: 0x8, addend: 0x0, symName: __ZNSt3__16vectorI4CardNS_9allocatorIS1_EEE26__swap_out_circular_bufferERNS_14__split_bufferIS1_RS3_EE, symObjAddr: 0x1898, symBinAddr: 0x100002240, symSize: 0x110 }
  - { offsetInCU: 0x880A, offset: 0x880A, size: 0x8, addend: 0x0, symName: __ZN9BlackjackC2EP12SDL_Renderer, symObjAddr: 0x0, symBinAddr: 0x1000009A8, symSize: 0x9C }
  - { offsetInCU: 0x8842, offset: 0x8842, size: 0x8, addend: 0x0, symName: __ZNSt3__16vectorI4CardNS_9allocatorIS1_EEEC1B8ne180100Ev, symObjAddr: 0x9C, symBinAddr: 0x100000A44, symSize: 0x2C }
  - { offsetInCU: 0x886A, offset: 0x886A, size: 0x8, addend: 0x0, symName: __ZN9Blackjack5resetEv, symObjAddr: 0xC8, symBinAddr: 0x100000A70, symSize: 0xFC }
  - { offsetInCU: 0x8890, offset: 0x8890, size: 0x8, addend: 0x0, symName: __ZNSt3__16vectorI4CardNS_9allocatorIS1_EEED1B8ne180100Ev, symObjAddr: 0x1C4, symBinAddr: 0x100000B6C, symSize: 0x2C }
  - { offsetInCU: 0x88B8, offset: 0x88B8, size: 0x8, addend: 0x0, symName: __ZN4DeckD1Ev, symObjAddr: 0x1F0, symBinAddr: 0x100000B98, symSize: 0x2C }
  - { offsetInCU: 0x88E2, offset: 0x88E2, size: 0x8, addend: 0x0, symName: __ZN9BlackjackC1EP12SDL_Renderer, symObjAddr: 0x21C, symBinAddr: 0x100000BC4, symSize: 0x34 }
  - { offsetInCU: 0x891A, offset: 0x891A, size: 0x8, addend: 0x0, symName: __ZNSt3__16vectorI4CardNS_9allocatorIS1_EEE5clearB8ne180100Ev, symObjAddr: 0x250, symBinAddr: 0x100000BF8, symSize: 0x44 }
  - { offsetInCU: 0x894D, offset: 0x894D, size: 0x8, addend: 0x0, symName: __ZNSt3__16vectorI4CardNS_9allocatorIS1_EEE9push_backB8ne180100EOS1_, symObjAddr: 0x294, symBinAddr: 0x100000C3C, symSize: 0x90 }
  - { offsetInCU: 0x8991, offset: 0x8991, size: 0x8, addend: 0x0, symName: __ZN9Blackjack3hitEv, symObjAddr: 0x324, symBinAddr: 0x100000CCC, symSize: 0xA0 }
  - { offsetInCU: 0x89B7, offset: 0x89B7, size: 0x8, addend: 0x0, symName: __ZNK9Blackjack12getHandValueERKNSt3__16vectorI4CardNS0_9allocatorIS2_EEEE, symObjAddr: 0x3C4, symBinAddr: 0x100000D6C, symSize: 0x12C }
  - { offsetInCU: 0x8A55, offset: 0x8A55, size: 0x8, addend: 0x0, symName: __ZN9Blackjack5standEv, symObjAddr: 0x4F0, symBinAddr: 0x100000E98, symSize: 0x68 }
  - { offsetInCU: 0x8A7B, offset: 0x8A7B, size: 0x8, addend: 0x0, symName: __ZN9Blackjack10dealerPlayEv, symObjAddr: 0x558, symBinAddr: 0x100000F00, symSize: 0x9C }
  - { offsetInCU: 0x8ABD, offset: 0x8ABD, size: 0x8, addend: 0x0, symName: __ZNSt3__16vectorI4CardNS_9allocatorIS1_EEEixB8ne180100Em, symObjAddr: 0x5F4, symBinAddr: 0x100000F9C, symSize: 0x2C }
  - { offsetInCU: 0x8AF2, offset: 0x8AF2, size: 0x8, addend: 0x0, symName: __ZN4Card6revealEv, symObjAddr: 0x620, symBinAddr: 0x100000FC8, symSize: 0x18 }
  - { offsetInCU: 0x8B16, offset: 0x8B16, size: 0x8, addend: 0x0, symName: __ZNKSt3__16vectorI4CardNS_9allocatorIS1_EEE5beginB8ne180100Ev, symObjAddr: 0x638, symBinAddr: 0x100000FE0, symSize: 0x30 }
  - { offsetInCU: 0x8B3C, offset: 0x8B3C, size: 0x8, addend: 0x0, symName: __ZNKSt3__16vectorI4CardNS_9allocatorIS1_EEE3endB8ne180100Ev, symObjAddr: 0x668, symBinAddr: 0x100001010, symSize: 0x30 }
  - { offsetInCU: 0x8B62, offset: 0x8B62, size: 0x8, addend: 0x0, symName: __ZNKSt3__111__wrap_iterIPK4CardEdeB8ne180100Ev, symObjAddr: 0x6CC, symBinAddr: 0x100001074, symSize: 0x18 }
  - { offsetInCU: 0x8B86, offset: 0x8B86, size: 0x8, addend: 0x0, symName: __ZNK4Card11getFaceDownEv, symObjAddr: 0x6E4, symBinAddr: 0x10000108C, symSize: 0x1C }
  - { offsetInCU: 0x8BAA, offset: 0x8BAA, size: 0x8, addend: 0x0, symName: __ZNK4Card8getValueEv, symObjAddr: 0x700, symBinAddr: 0x1000010A8, symSize: 0x4C }
  - { offsetInCU: 0x8BCE, offset: 0x8BCE, size: 0x8, addend: 0x0, symName: __ZNSt3__111__wrap_iterIPK4CardEppB8ne180100Ev, symObjAddr: 0x74C, symBinAddr: 0x1000010F4, symSize: 0x20 }
  - { offsetInCU: 0x8BF2, offset: 0x8BF2, size: 0x8, addend: 0x0, symName: __ZNK9Blackjack10isGameOverEv, symObjAddr: 0x76C, symBinAddr: 0x100001114, symSize: 0x1C }
  - { offsetInCU: 0x8C18, offset: 0x8C18, size: 0x8, addend: 0x0, symName: __ZN9Blackjack6renderEP12SDL_Renderer, symObjAddr: 0x788, symBinAddr: 0x100001130, symSize: 0x524 }
  - { offsetInCU: 0x8C95, offset: 0x8C95, size: 0x8, addend: 0x0, symName: __ZNK9Blackjack10renderHandERKNSt3__16vectorI4CardNS0_9allocatorIS2_EEEEP12SDL_Rendereri, symObjAddr: 0xCAC, symBinAddr: 0x100001654, symSize: 0x104 }
  - { offsetInCU: 0x8D62, offset: 0x8D62, size: 0x8, addend: 0x0, symName: __ZNSt3__112basic_stringIcNS_11char_traitsIcEENS_9allocatorIcEEEC1B8ne180100ILi0EEEPKc, symObjAddr: 0xDF4, symBinAddr: 0x10000179C, symSize: 0x34 }
  - { offsetInCU: 0x8D9F, offset: 0x8D9F, size: 0x8, addend: 0x0, symName: __ZN4DeckD2Ev, symObjAddr: 0xE28, symBinAddr: 0x1000017D0, symSize: 0x3C }
  - { offsetInCU: 0x8DC9, offset: 0x8DC9, size: 0x8, addend: 0x0, symName: __ZNKSt3__111__wrap_iterIPK4CardE4baseB8ne180100Ev, symObjAddr: 0xEAC, symBinAddr: 0x100001854, symSize: 0x18 }
  - { offsetInCU: 0x8DED, offset: 0x8DED, size: 0x8, addend: 0x0, symName: __ZNSt3__16vectorI4CardNS_9allocatorIS1_EEEC2B8ne180100Ev, symObjAddr: 0xEC4, symBinAddr: 0x10000186C, symSize: 0x4C }
  - { offsetInCU: 0x8E1F, offset: 0x8E1F, size: 0x8, addend: 0x0, symName: __ZNSt3__117__compressed_pairIP4CardNS_9allocatorIS1_EEEC1B8ne180100IDnNS_18__default_init_tagEEEOT_OT0_, symObjAddr: 0xF10, symBinAddr: 0x1000018B8, symSize: 0x3C }
  - { offsetInCU: 0x8E75, offset: 0x8E75, size: 0x8, addend: 0x0, symName: __ZNSt3__117__compressed_pairIP4CardNS_9allocatorIS1_EEEC2B8ne180100IDnNS_18__default_init_tagEEEOT_OT0_, symObjAddr: 0xF58, symBinAddr: 0x100001900, symSize: 0x40 }
  - { offsetInCU: 0x8ECB, offset: 0x8ECB, size: 0x8, addend: 0x0, symName: __ZNSt3__122__compressed_pair_elemIP4CardLi0ELb0EEC2B8ne180100IDnvEEOT_, symObjAddr: 0xF98, symBinAddr: 0x100001940, symSize: 0x1C }
  - { offsetInCU: 0x8F0B, offset: 0x8F0B, size: 0x8, addend: 0x0, symName: __ZNSt3__122__compressed_pair_elemINS_9allocatorI4CardEELi1ELb1EEC2B8ne180100ENS_18__default_init_tagE, symObjAddr: 0xFB4, symBinAddr: 0x10000195C, symSize: 0x2C }
  - { offsetInCU: 0x8F3D, offset: 0x8F3D, size: 0x8, addend: 0x0, symName: __ZNSt3__19allocatorI4CardEC2B8ne180100Ev, symObjAddr: 0xFE0, symBinAddr: 0x100001988, symSize: 0x2C }
  - { offsetInCU: 0x8F65, offset: 0x8F65, size: 0x8, addend: 0x0, symName: __ZNSt3__116__non_trivial_ifILb1ENS_9allocatorI4CardEEEC2B8ne180100Ev, symObjAddr: 0x100C, symBinAddr: 0x1000019B4, symSize: 0x14 }
  - { offsetInCU: 0x8F8D, offset: 0x8F8D, size: 0x8, addend: 0x0, symName: __ZNSt3__16vectorI4CardNS_9allocatorIS1_EEED2B8ne180100Ev, symObjAddr: 0x1020, symBinAddr: 0x1000019C8, symSize: 0x44 }
  - { offsetInCU: 0x8FB5, offset: 0x8FB5, size: 0x8, addend: 0x0, symName: __ZNSt3__16vectorI4CardNS_9allocatorIS1_EEE16__destroy_vectorC1B8ne180100ERS4_, symObjAddr: 0x1064, symBinAddr: 0x100001A0C, symSize: 0x34 }
  - { offsetInCU: 0x8FEC, offset: 0x8FEC, size: 0x8, addend: 0x0, symName: __ZNSt3__16vectorI4CardNS_9allocatorIS1_EEE16__destroy_vectorclB8ne180100Ev, symObjAddr: 0x1098, symBinAddr: 0x100001A40, symSize: 0x90 }
  - { offsetInCU: 0x9010, offset: 0x9010, size: 0x8, addend: 0x0, symName: __ZNSt3__16vectorI4CardNS_9allocatorIS1_EEE16__destroy_vectorC2B8ne180100ERS4_, symObjAddr: 0x1128, symBinAddr: 0x100001AD0, symSize: 0x20 }
  - { offsetInCU: 0x9047, offset: 0x9047, size: 0x8, addend: 0x0, symName: __ZNSt3__16vectorI4CardNS_9allocatorIS1_EEE7__clearB8ne180100Ev, symObjAddr: 0x1148, symBinAddr: 0x100001AF0, symSize: 0x28 }
  - { offsetInCU: 0x906B, offset: 0x906B, size: 0x8, addend: 0x0, symName: __ZNKSt3__16vectorI4CardNS_9allocatorIS1_EEE17__annotate_deleteB8ne180100Ev, symObjAddr: 0x1170, symBinAddr: 0x100001B18, symSize: 0x10 }
  - { offsetInCU: 0x9090, offset: 0x9090, size: 0x8, addend: 0x0, symName: __ZNSt3__116allocator_traitsINS_9allocatorI4CardEEE10deallocateB8ne180100ERS3_PS2_m, symObjAddr: 0x1180, symBinAddr: 0x100001B28, symSize: 0x34 }
  - { offsetInCU: 0x90D0, offset: 0x90D0, size: 0x8, addend: 0x0, symName: __ZNSt3__16vectorI4CardNS_9allocatorIS1_EEE7__allocB8ne180100Ev, symObjAddr: 0x11B4, symBinAddr: 0x100001B5C, symSize: 0x28 }
  - { offsetInCU: 0x90F4, offset: 0x90F4, size: 0x8, addend: 0x0, symName: __ZNKSt3__16vectorI4CardNS_9allocatorIS1_EEE8capacityB8ne180100Ev, symObjAddr: 0x11DC, symBinAddr: 0x100001B84, symSize: 0x40 }
  - { offsetInCU: 0x9118, offset: 0x9118, size: 0x8, addend: 0x0, symName: __ZNSt3__16vectorI4CardNS_9allocatorIS1_EEE22__base_destruct_at_endB8ne180100EPS1_, symObjAddr: 0x121C, symBinAddr: 0x100001BC4, symSize: 0x8C }
  - { offsetInCU: 0x915B, offset: 0x915B, size: 0x8, addend: 0x0, symName: __ZNSt3__116allocator_traitsINS_9allocatorI4CardEEE7destroyB8ne180100IS2_vEEvRS3_PT_, symObjAddr: 0x12A8, symBinAddr: 0x100001C50, symSize: 0x2C }
  - { offsetInCU: 0x9196, offset: 0x9196, size: 0x8, addend: 0x0, symName: __ZNSt3__19allocatorI4CardE7destroyB8ne180100EPS1_, symObjAddr: 0x12E8, symBinAddr: 0x100001C90, symSize: 0x14 }
  - { offsetInCU: 0x91C8, offset: 0x91C8, size: 0x8, addend: 0x0, symName: __ZNSt3__19allocatorI4CardE10deallocateB8ne180100EPS1_m, symObjAddr: 0x12FC, symBinAddr: 0x100001CA4, symSize: 0x44 }
  - { offsetInCU: 0x9208, offset: 0x9208, size: 0x8, addend: 0x0, symName: __ZNSt3__117__compressed_pairIP4CardNS_9allocatorIS1_EEE6secondB8ne180100Ev, symObjAddr: 0x13BC, symBinAddr: 0x100001D64, symSize: 0x24 }
  - { offsetInCU: 0x922C, offset: 0x922C, size: 0x8, addend: 0x0, symName: __ZNSt3__122__compressed_pair_elemINS_9allocatorI4CardEELi1ELb1EE5__getB8ne180100Ev, symObjAddr: 0x13E0, symBinAddr: 0x100001D88, symSize: 0x14 }
  - { offsetInCU: 0x9250, offset: 0x9250, size: 0x8, addend: 0x0, symName: __ZNKSt3__16vectorI4CardNS_9allocatorIS1_EEE9__end_capB8ne180100Ev, symObjAddr: 0x13F4, symBinAddr: 0x100001D9C, symSize: 0x28 }
  - { offsetInCU: 0x9274, offset: 0x9274, size: 0x8, addend: 0x0, symName: __ZNKSt3__117__compressed_pairIP4CardNS_9allocatorIS1_EEE5firstB8ne180100Ev, symObjAddr: 0x141C, symBinAddr: 0x100001DC4, symSize: 0x24 }
  - { offsetInCU: 0x9298, offset: 0x9298, size: 0x8, addend: 0x0, symName: __ZNKSt3__122__compressed_pair_elemIP4CardLi0ELb0EE5__getB8ne180100Ev, symObjAddr: 0x1440, symBinAddr: 0x100001DE8, symSize: 0x14 }
  - { offsetInCU: 0x92BC, offset: 0x92BC, size: 0x8, addend: 0x0, symName: __ZNKSt3__16vectorI4CardNS_9allocatorIS1_EEE4sizeB8ne180100Ev, symObjAddr: 0x1454, symBinAddr: 0x100001DFC, symSize: 0x28 }
  - { offsetInCU: 0x92E0, offset: 0x92E0, size: 0x8, addend: 0x0, symName: __ZNKSt3__16vectorI4CardNS_9allocatorIS1_EEE17__annotate_shrinkB8ne180100Em, symObjAddr: 0x147C, symBinAddr: 0x100001E24, symSize: 0x14 }
  - { offsetInCU: 0x9313, offset: 0x9313, size: 0x8, addend: 0x0, symName: __ZNSt3__16vectorI4CardNS_9allocatorIS1_EEE9__end_capB8ne180100Ev, symObjAddr: 0x1490, symBinAddr: 0x100001E38, symSize: 0x28 }
  - { offsetInCU: 0x933C, offset: 0x933C, size: 0x8, addend: 0x0, symName: __ZNSt3__16vectorI4CardNS_9allocatorIS1_EEE22__construct_one_at_endB8ne180100IJS1_EEEvDpOT_, symObjAddr: 0x14B8, symBinAddr: 0x100001E60, symSize: 0x90 }
  - { offsetInCU: 0x9389, offset: 0x9389, size: 0x8, addend: 0x0, symName: __ZNSt3__16vectorI4CardNS_9allocatorIS1_EEE21__push_back_slow_pathIS1_EEPS1_OT_, symObjAddr: 0x1548, symBinAddr: 0x100001EF0, symSize: 0xE8 }
  - { offsetInCU: 0x93E5, offset: 0x93E5, size: 0x8, addend: 0x0, symName: __ZNSt3__117__compressed_pairIP4CardNS_9allocatorIS1_EEE5firstB8ne180100Ev, symObjAddr: 0x1630, symBinAddr: 0x100001FD8, symSize: 0x24 }
  - { offsetInCU: 0x9409, offset: 0x9409, size: 0x8, addend: 0x0, symName: __ZNSt3__122__compressed_pair_elemIP4CardLi0ELb0EE5__getB8ne180100Ev, symObjAddr: 0x1654, symBinAddr: 0x100001FFC, symSize: 0x14 }
  - { offsetInCU: 0x9446, offset: 0x9446, size: 0x8, addend: 0x0, symName: __ZNSt3__16vectorI4CardNS_9allocatorIS1_EEE21_ConstructTransactionC1B8ne180100ERS4_m, symObjAddr: 0x1668, symBinAddr: 0x100002010, symSize: 0x3C }
  - { offsetInCU: 0x948D, offset: 0x948D, size: 0x8, addend: 0x0, symName: __ZNSt3__116allocator_traitsINS_9allocatorI4CardEEE9constructB8ne180100IS2_JS2_EvEEvRS3_PT_DpOT0_, symObjAddr: 0x16A4, symBinAddr: 0x10000204C, symSize: 0x34 }
  - { offsetInCU: 0x94E2, offset: 0x94E2, size: 0x8, addend: 0x0, symName: __ZNSt3__16vectorI4CardNS_9allocatorIS1_EEE21_ConstructTransactionD1B8ne180100Ev, symObjAddr: 0x16D8, symBinAddr: 0x100002080, symSize: 0x2C }
  - { offsetInCU: 0x950A, offset: 0x950A, size: 0x8, addend: 0x0, symName: __ZNSt3__16vectorI4CardNS_9allocatorIS1_EEE21_ConstructTransactionC2B8ne180100ERS4_m, symObjAddr: 0x1704, symBinAddr: 0x1000020AC, symSize: 0x4C }
  - { offsetInCU: 0x9550, offset: 0x9550, size: 0x8, addend: 0x0, symName: __ZNSt3__19allocatorI4CardE9constructB8ne180100IS1_JS1_EEEvPT_DpOT0_, symObjAddr: 0x1750, symBinAddr: 0x1000020F8, symSize: 0x30 }
  - { offsetInCU: 0x95A4, offset: 0x95A4, size: 0x8, addend: 0x0, symName: __ZNSt3__16vectorI4CardNS_9allocatorIS1_EEE21_ConstructTransactionD2B8ne180100Ev, symObjAddr: 0x1780, symBinAddr: 0x100002128, symSize: 0x20 }
  - { offsetInCU: 0x95CC, offset: 0x95CC, size: 0x8, addend: 0x0, symName: __ZNKSt3__16vectorI4CardNS_9allocatorIS1_EEE11__recommendB8ne180100Em, symObjAddr: 0x17A0, symBinAddr: 0x100002148, symSize: 0xB4 }
  - { offsetInCU: 0x9620, offset: 0x9620, size: 0x8, addend: 0x0, symName: __ZNSt3__114__split_bufferI4CardRNS_9allocatorIS1_EEEC1EmmS4_, symObjAddr: 0x1854, symBinAddr: 0x1000021FC, symSize: 0x44 }
  - { offsetInCU: 0x9674, offset: 0x9674, size: 0x8, addend: 0x0, symName: __ZNSt3__114__split_bufferI4CardRNS_9allocatorIS1_EEED1Ev, symObjAddr: 0x19A8, symBinAddr: 0x100002350, symSize: 0x2C }
  - { offsetInCU: 0x969D, offset: 0x969D, size: 0x8, addend: 0x0, symName: __ZNKSt3__16vectorI4CardNS_9allocatorIS1_EEE8max_sizeEv, symObjAddr: 0x19D4, symBinAddr: 0x10000237C, symSize: 0x60 }
  - { offsetInCU: 0x96C3, offset: 0x96C3, size: 0x8, addend: 0x0, symName: __ZNKSt3__16vectorI4CardNS_9allocatorIS1_EEE20__throw_length_errorB8ne180100Ev, symObjAddr: 0x1A34, symBinAddr: 0x1000023DC, symSize: 0x1C }
  - { offsetInCU: 0x96F2, offset: 0x96F2, size: 0x8, addend: 0x0, symName: __ZNSt3__116allocator_traitsINS_9allocatorI4CardEEE8max_sizeB8ne180100IS3_vEEmRKS3_, symObjAddr: 0x1AA8, symBinAddr: 0x100002450, symSize: 0x24 }
  - { offsetInCU: 0x971E, offset: 0x971E, size: 0x8, addend: 0x0, symName: __ZNKSt3__16vectorI4CardNS_9allocatorIS1_EEE7__allocB8ne180100Ev, symObjAddr: 0x1ACC, symBinAddr: 0x100002474, symSize: 0x28 }
  - { offsetInCU: 0x9743, offset: 0x9743, size: 0x8, addend: 0x0, symName: __ZNSt3__114numeric_limitsIlE3maxB8ne180100Ev, symObjAddr: 0x1AF4, symBinAddr: 0x10000249C, symSize: 0x14 }
  - { offsetInCU: 0x976A, offset: 0x976A, size: 0x8, addend: 0x0, symName: __ZNKSt3__16__lessIvvEclB8ne180100ImmEEbRKT_RKT0_, symObjAddr: 0x1B5C, symBinAddr: 0x100002504, symSize: 0x34 }
  - { offsetInCU: 0x97BC, offset: 0x97BC, size: 0x8, addend: 0x0, symName: __ZNKSt3__19allocatorI4CardE8max_sizeB8ne180100Ev, symObjAddr: 0x1B90, symBinAddr: 0x100002538, symSize: 0x18 }
  - { offsetInCU: 0x97E0, offset: 0x97E0, size: 0x8, addend: 0x0, symName: __ZNKSt3__117__compressed_pairIP4CardNS_9allocatorIS1_EEE6secondB8ne180100Ev, symObjAddr: 0x1BA8, symBinAddr: 0x100002550, symSize: 0x24 }
  - { offsetInCU: 0x9804, offset: 0x9804, size: 0x8, addend: 0x0, symName: __ZNKSt3__122__compressed_pair_elemINS_9allocatorI4CardEELi1ELb1EE5__getB8ne180100Ev, symObjAddr: 0x1BCC, symBinAddr: 0x100002574, symSize: 0x14 }
  - { offsetInCU: 0x9829, offset: 0x9829, size: 0x8, addend: 0x0, symName: __ZNSt3__123__libcpp_numeric_limitsIlLb1EE3maxB8ne180100Ev, symObjAddr: 0x1BE0, symBinAddr: 0x100002588, symSize: 0x8 }
  - { offsetInCU: 0x983C, offset: 0x983C, size: 0x8, addend: 0x0, symName: __ZNSt12length_errorC1B8ne180100EPKc, symObjAddr: 0x1C4C, symBinAddr: 0x1000025F4, symSize: 0x34 }
  - { offsetInCU: 0x9872, offset: 0x9872, size: 0x8, addend: 0x0, symName: __ZNSt12length_errorC2B8ne180100EPKc, symObjAddr: 0x1C80, symBinAddr: 0x100002628, symSize: 0x4C }
  - { offsetInCU: 0x98A9, offset: 0x98A9, size: 0x8, addend: 0x0, symName: __ZNSt3__114__split_bufferI4CardRNS_9allocatorIS1_EEEC2EmmS4_, symObjAddr: 0x1D20, symBinAddr: 0x1000026C8, symSize: 0xE0 }
  - { offsetInCU: 0x9919, offset: 0x9919, size: 0x8, addend: 0x0, symName: __ZNSt3__117__compressed_pairIP4CardRNS_9allocatorIS1_EEEC1B8ne180100IDnS5_EEOT_OT0_, symObjAddr: 0x1E00, symBinAddr: 0x1000027A8, symSize: 0x3C }
  - { offsetInCU: 0x996F, offset: 0x996F, size: 0x8, addend: 0x0, symName: __ZNSt3__114__split_bufferI4CardRNS_9allocatorIS1_EEE7__allocB8ne180100Ev, symObjAddr: 0x1E7C, symBinAddr: 0x100002824, symSize: 0x28 }
  - { offsetInCU: 0x9993, offset: 0x9993, size: 0x8, addend: 0x0, symName: __ZNSt3__114__split_bufferI4CardRNS_9allocatorIS1_EEE9__end_capB8ne180100Ev, symObjAddr: 0x1EA4, symBinAddr: 0x10000284C, symSize: 0x28 }
  - { offsetInCU: 0x99B7, offset: 0x99B7, size: 0x8, addend: 0x0, symName: __ZNSt3__117__compressed_pairIP4CardRNS_9allocatorIS1_EEEC2B8ne180100IDnS5_EEOT_OT0_, symObjAddr: 0x1ECC, symBinAddr: 0x100002874, symSize: 0x48 }
  - { offsetInCU: 0x9A0D, offset: 0x9A0D, size: 0x8, addend: 0x0, symName: __ZNSt3__122__compressed_pair_elemIRNS_9allocatorI4CardEELi1ELb0EEC2B8ne180100IS4_vEEOT_, symObjAddr: 0x1F14, symBinAddr: 0x1000028BC, symSize: 0x20 }
  - { offsetInCU: 0x9A4D, offset: 0x9A4D, size: 0x8, addend: 0x0, symName: __ZNSt3__19allocatorI4CardE8allocateB8ne180100Em, symObjAddr: 0x1F34, symBinAddr: 0x1000028DC, symSize: 0x5C }
  - { offsetInCU: 0x9A7F, offset: 0x9A7F, size: 0x8, addend: 0x0, symName: __ZNSt3__117__compressed_pairIP4CardRNS_9allocatorIS1_EEE6secondB8ne180100Ev, symObjAddr: 0x2010, symBinAddr: 0x1000029B8, symSize: 0x28 }
  - { offsetInCU: 0x9AA3, offset: 0x9AA3, size: 0x8, addend: 0x0, symName: __ZNSt3__122__compressed_pair_elemIRNS_9allocatorI4CardEELi1ELb0EE5__getB8ne180100Ev, symObjAddr: 0x2038, symBinAddr: 0x1000029E0, symSize: 0x18 }
  - { offsetInCU: 0x9AC7, offset: 0x9AC7, size: 0x8, addend: 0x0, symName: __ZNSt3__117__compressed_pairIP4CardRNS_9allocatorIS1_EEE5firstB8ne180100Ev, symObjAddr: 0x2050, symBinAddr: 0x1000029F8, symSize: 0x24 }
  - { offsetInCU: 0x9AEB, offset: 0x9AEB, size: 0x8, addend: 0x0, symName: __ZNSt3__116reverse_iteratorIP4CardEC1B8ne180100ES2_, symObjAddr: 0x20EC, symBinAddr: 0x100002A94, symSize: 0x34 }
  - { offsetInCU: 0x9B21, offset: 0x9B21, size: 0x8, addend: 0x0, symName: __ZNKSt3__116reverse_iteratorIP4CardE4baseB8ne180100Ev, symObjAddr: 0x2120, symBinAddr: 0x100002AC8, symSize: 0x18 }
  - { offsetInCU: 0x9B45, offset: 0x9B45, size: 0x8, addend: 0x0, symName: __ZNKSt3__16vectorI4CardNS_9allocatorIS1_EEE14__annotate_newB8ne180100Em, symObjAddr: 0x2174, symBinAddr: 0x100002B1C, symSize: 0x14 }
  - { offsetInCU: 0x9B9B, offset: 0x9B9B, size: 0x8, addend: 0x0, symName: __ZNKSt3__111__move_loopINS_17_ClassicAlgPolicyEEclB8ne180100INS_16reverse_iteratorIP4CardEES7_S7_EENS_4pairIT_T1_EES9_T0_SA_, symObjAddr: 0x2478, symBinAddr: 0x100002E20, symSize: 0xA8 }
  - { offsetInCU: 0x9C0A, offset: 0x9C0A, size: 0x8, addend: 0x0, symName: __ZNSt3__18_IterOpsINS_17_ClassicAlgPolicyEE11__iter_moveB8ne180100IRNS_16reverse_iteratorIP4CardEELi0EEEDTclsr3stdE4movedeclsr3stdE7declvalIRT_EEEEOS9_, symObjAddr: 0x26B4, symBinAddr: 0x10000305C, symSize: 0x28 }
  - { offsetInCU: 0x9C3A, offset: 0x9C3A, size: 0x8, addend: 0x0, symName: __ZNKSt3__116reverse_iteratorIP4CardEdeB8ne180100Ev, symObjAddr: 0x26DC, symBinAddr: 0x100003084, symSize: 0x28 }
  - { offsetInCU: 0x9C6C, offset: 0x9C6C, size: 0x8, addend: 0x0, symName: __ZNSt3__116reverse_iteratorIP4CardEppB8ne180100Ev, symObjAddr: 0x2704, symBinAddr: 0x1000030AC, symSize: 0x20 }
  - { offsetInCU: 0x9C91, offset: 0x9C91, size: 0x8, addend: 0x0, symName: __ZNSt3__18_IterOpsINS_17_ClassicAlgPolicyEE25__validate_iter_referenceB8ne180100IRNS_16reverse_iteratorIP4CardEEEEvv, symObjAddr: 0x2724, symBinAddr: 0x1000030CC, symSize: 0x4 }
  - { offsetInCU: 0x9CAF, offset: 0x9CAF, size: 0x8, addend: 0x0, symName: __ZNSt3__118__unwrap_iter_implINS_16reverse_iteratorIP4CardEELb0EE8__unwrapB8ne180100ES4_, symObjAddr: 0x2728, symBinAddr: 0x1000030D0, symSize: 0x24 }
  - { offsetInCU: 0x9CD6, offset: 0x9CD6, size: 0x8, addend: 0x0, symName: __ZNSt3__14pairINS_16reverse_iteratorIP4CardEES4_EC1B8ne180100IS4_S4_Li0EEEOT_OT0_, symObjAddr: 0x274C, symBinAddr: 0x1000030F4, symSize: 0x3C }
  - { offsetInCU: 0x9D32, offset: 0x9D32, size: 0x8, addend: 0x0, symName: __ZNSt3__14pairINS_16reverse_iteratorIP4CardEES4_EC2B8ne180100IS4_S4_Li0EEEOT_OT0_, symObjAddr: 0x2788, symBinAddr: 0x100003130, symSize: 0x34 }
  - { offsetInCU: 0x9D8F, offset: 0x9D8F, size: 0x8, addend: 0x0, symName: __ZNSt3__118__unwrap_iter_implINS_16reverse_iteratorIP4CardEELb0EE8__rewrapB8ne180100ES4_S4_, symObjAddr: 0x27BC, symBinAddr: 0x100003164, symSize: 0x2C }
  - { offsetInCU: 0x9DBB, offset: 0x9DBB, size: 0x8, addend: 0x0, symName: __ZNSt3__116reverse_iteratorIP4CardEC2B8ne180100ES2_, symObjAddr: 0x27E8, symBinAddr: 0x100003190, symSize: 0x28 }
  - { offsetInCU: 0x9DF2, offset: 0x9DF2, size: 0x8, addend: 0x0, symName: __ZNSt3__114__split_bufferI4CardRNS_9allocatorIS1_EEED2Ev, symObjAddr: 0x2810, symBinAddr: 0x1000031B8, symSize: 0x8C }
  - { offsetInCU: 0x9E1B, offset: 0x9E1B, size: 0x8, addend: 0x0, symName: __ZNSt3__114__split_bufferI4CardRNS_9allocatorIS1_EEE5clearB8ne180100Ev, symObjAddr: 0x289C, symBinAddr: 0x100003244, symSize: 0x28 }
  - { offsetInCU: 0x9E3F, offset: 0x9E3F, size: 0x8, addend: 0x0, symName: __ZNKSt3__114__split_bufferI4CardRNS_9allocatorIS1_EEE8capacityB8ne180100Ev, symObjAddr: 0x28C4, symBinAddr: 0x10000326C, symSize: 0x40 }
  - { offsetInCU: 0x9E63, offset: 0x9E63, size: 0x8, addend: 0x0, symName: __ZNSt3__114__split_bufferI4CardRNS_9allocatorIS1_EEE17__destruct_at_endB8ne180100EPS1_, symObjAddr: 0x2904, symBinAddr: 0x1000032AC, symSize: 0x2C }
  - { offsetInCU: 0x9E95, offset: 0x9E95, size: 0x8, addend: 0x0, symName: __ZNSt3__114__split_bufferI4CardRNS_9allocatorIS1_EEE17__destruct_at_endB8ne180100EPS1_NS_17integral_constantIbLb0EEE, symObjAddr: 0x2930, symBinAddr: 0x1000032D8, symSize: 0x80 }
  - { offsetInCU: 0x9ED3, offset: 0x9ED3, size: 0x8, addend: 0x0, symName: __ZNKSt3__114__split_bufferI4CardRNS_9allocatorIS1_EEE9__end_capB8ne180100Ev, symObjAddr: 0x29B0, symBinAddr: 0x100003358, symSize: 0x28 }
  - { offsetInCU: 0x9EF7, offset: 0x9EF7, size: 0x8, addend: 0x0, symName: __ZNKSt3__117__compressed_pairIP4CardRNS_9allocatorIS1_EEE5firstB8ne180100Ev, symObjAddr: 0x29D8, symBinAddr: 0x100003380, symSize: 0x24 }
  - { offsetInCU: 0x9F1B, offset: 0x9F1B, size: 0x8, addend: 0x0, symName: __ZNKSt3__16vectorI4CardNS_9allocatorIS1_EEE11__make_iterB8ne180100EPKS1_, symObjAddr: 0x29FC, symBinAddr: 0x1000033A4, symSize: 0x30 }
  - { offsetInCU: 0x9F4E, offset: 0x9F4E, size: 0x8, addend: 0x0, symName: __ZNSt3__111__wrap_iterIPK4CardEC1B8ne180100ES3_, symObjAddr: 0x2A2C, symBinAddr: 0x1000033D4, symSize: 0x34 }
  - { offsetInCU: 0x9F84, offset: 0x9F84, size: 0x8, addend: 0x0, symName: __ZNSt3__111__wrap_iterIPK4CardEC2B8ne180100ES3_, symObjAddr: 0x2A60, symBinAddr: 0x100003408, symSize: 0x20 }
  - { offsetInCU: 0x9FBA, offset: 0x9FBA, size: 0x8, addend: 0x0, symName: __ZNSt3__112basic_stringIcNS_11char_traitsIcEENS_9allocatorIcEEEC1B8ne180100EOS5_, symObjAddr: 0x2A80, symBinAddr: 0x100003428, symSize: 0x34 }
  - { offsetInCU: 0x9FF1, offset: 0x9FF1, size: 0x8, addend: 0x0, symName: __ZNSt3__112basic_stringIcNS_11char_traitsIcEENS_9allocatorIcEEEC2B8ne180100EOS5_, symObjAddr: 0x2AB4, symBinAddr: 0x10000345C, symSize: 0xB8 }
  - { offsetInCU: 0xA058, offset: 0xA058, size: 0x8, addend: 0x0, symName: __ZZNSt3__112basic_stringIcNS_11char_traitsIcEENS_9allocatorIcEEEC1B8ne180100EOS5_ENKUlRS5_E_clES7_, symObjAddr: 0x2B6C, symBinAddr: 0x100003514, symSize: 0x40 }
  - { offsetInCU: 0xA08F, offset: 0xA08F, size: 0x8, addend: 0x0, symName: __ZNSt3__117__compressed_pairINS_12basic_stringIcNS_11char_traitsIcEENS_9allocatorIcEEE5__repES5_E5firstB8ne180100Ev, symObjAddr: 0x2BAC, symBinAddr: 0x100003554, symSize: 0x24 }
  - { offsetInCU: 0xA0B3, offset: 0xA0B3, size: 0x8, addend: 0x0, symName: __ZNKSt3__112basic_stringIcNS_11char_traitsIcEENS_9allocatorIcEEE14__annotate_newB8ne180100Em, symObjAddr: 0x2BD0, symBinAddr: 0x100003578, symSize: 0x14 }
  - { offsetInCU: 0xA0E6, offset: 0xA0E6, size: 0x8, addend: 0x0, symName: __ZNKSt3__112basic_stringIcNS_11char_traitsIcEENS_9allocatorIcEEE9__is_longB8ne180100Ev, symObjAddr: 0x2BE4, symBinAddr: 0x10000358C, symSize: 0x38 }
  - { offsetInCU: 0xA10A, offset: 0xA10A, size: 0x8, addend: 0x0, symName: __ZNKSt3__112basic_stringIcNS_11char_traitsIcEENS_9allocatorIcEEE4sizeB8ne180100Ev, symObjAddr: 0x2C1C, symBinAddr: 0x1000035C4, symSize: 0x54 }
  - { offsetInCU: 0xA12E, offset: 0xA12E, size: 0x8, addend: 0x0, symName: __ZNKSt3__112basic_stringIcNS_11char_traitsIcEENS_9allocatorIcEEE17__annotate_deleteB8ne180100Ev, symObjAddr: 0x2C70, symBinAddr: 0x100003618, symSize: 0x10 }
  - { offsetInCU: 0xA152, offset: 0xA152, size: 0x8, addend: 0x0, symName: __ZNSt3__122__compressed_pair_elemINS_12basic_stringIcNS_11char_traitsIcEENS_9allocatorIcEEE5__repELi0ELb0EE5__getB8ne180100Ev, symObjAddr: 0x2C80, symBinAddr: 0x100003628, symSize: 0x14 }
  - { offsetInCU: 0xA176, offset: 0xA176, size: 0x8, addend: 0x0, symName: __ZNKSt3__117__compressed_pairINS_12basic_stringIcNS_11char_traitsIcEENS_9allocatorIcEEE5__repES5_E5firstB8ne180100Ev, symObjAddr: 0x2C94, symBinAddr: 0x10000363C, symSize: 0x24 }
  - { offsetInCU: 0xA19A, offset: 0xA19A, size: 0x8, addend: 0x0, symName: __ZNKSt3__122__compressed_pair_elemINS_12basic_stringIcNS_11char_traitsIcEENS_9allocatorIcEEE5__repELi0ELb0EE5__getB8ne180100Ev, symObjAddr: 0x2CB8, symBinAddr: 0x100003660, symSize: 0x14 }
  - { offsetInCU: 0xA1BE, offset: 0xA1BE, size: 0x8, addend: 0x0, symName: __ZNKSt3__112basic_stringIcNS_11char_traitsIcEENS_9allocatorIcEEE15__get_long_sizeB8ne180100Ev, symObjAddr: 0x2CCC, symBinAddr: 0x100003674, symSize: 0x28 }
  - { offsetInCU: 0xA1E2, offset: 0xA1E2, size: 0x8, addend: 0x0, symName: __ZNKSt3__112basic_stringIcNS_11char_traitsIcEENS_9allocatorIcEEE16__get_short_sizeB8ne180100Ev, symObjAddr: 0x2CF4, symBinAddr: 0x10000369C, symSize: 0x34 }
  - { offsetInCU: 0xA206, offset: 0xA206, size: 0x8, addend: 0x0, symName: __ZNSt3__112basic_stringIcNS_11char_traitsIcEENS_9allocatorIcEEEC2B8ne180100ILi0EEEPKc, symObjAddr: 0x2D28, symBinAddr: 0x1000036D0, symSize: 0x58 }
  - { offsetInCU: 0xA243, offset: 0xA243, size: 0x8, addend: 0x0, symName: __ZNSt3__117__compressed_pairINS_12basic_stringIcNS_11char_traitsIcEENS_9allocatorIcEEE5__repES5_EC1B8ne180100INS_18__default_init_tagESA_EEOT_OT0_, symObjAddr: 0x2D80, symBinAddr: 0x100003728, symSize: 0x3C }
  - { offsetInCU: 0xA29A, offset: 0xA29A, size: 0x8, addend: 0x0, symName: __ZNSt3__111char_traitsIcE6lengthB8ne180100EPKc, symObjAddr: 0x2DBC, symBinAddr: 0x100003764, symSize: 0x34 }
  - { offsetInCU: 0xA2BB, offset: 0xA2BB, size: 0x8, addend: 0x0, symName: __ZNSt3__117__compressed_pairINS_12basic_stringIcNS_11char_traitsIcEENS_9allocatorIcEEE5__repES5_EC2B8ne180100INS_18__default_init_tagESA_EEOT_OT0_, symObjAddr: 0x2DF0, symBinAddr: 0x100003798, symSize: 0x3C }
  - { offsetInCU: 0xA311, offset: 0xA311, size: 0x8, addend: 0x0, symName: __ZNSt3__122__compressed_pair_elemINS_12basic_stringIcNS_11char_traitsIcEENS_9allocatorIcEEE5__repELi0ELb0EEC2B8ne180100ENS_18__default_init_tagE, symObjAddr: 0x2E2C, symBinAddr: 0x1000037D4, symSize: 0x14 }
  - { offsetInCU: 0xA343, offset: 0xA343, size: 0x8, addend: 0x0, symName: __ZNSt3__122__compressed_pair_elemINS_9allocatorIcEELi1ELb1EEC2B8ne180100ENS_18__default_init_tagE, symObjAddr: 0x2E40, symBinAddr: 0x1000037E8, symSize: 0x2C }
  - { offsetInCU: 0xA375, offset: 0xA375, size: 0x8, addend: 0x0, symName: __ZNSt3__19allocatorIcEC2B8ne180100Ev, symObjAddr: 0x2E6C, symBinAddr: 0x100003814, symSize: 0x2C }
  - { offsetInCU: 0xA39D, offset: 0xA39D, size: 0x8, addend: 0x0, symName: __ZNSt3__116__non_trivial_ifILb1ENS_9allocatorIcEEEC2B8ne180100Ev, symObjAddr: 0x2E98, symBinAddr: 0x100003840, symSize: 0x14 }
  - { offsetInCU: 0x3480, offset: 0xDA6A, size: 0x8, addend: 0x0, symName: __ZNSt3__124__put_character_sequenceB8ne180100IcNS_11char_traitsIcEEEERNS_13basic_ostreamIT_T0_EES7_PKS4_m, symObjAddr: 0x93C, symBinAddr: 0x1000041B4, symSize: 0x1EC }
  - { offsetInCU: 0x4F8F, offset: 0xF579, size: 0x8, addend: 0x0, symName: __ZNSt3__1lsB8ne180100INS_11char_traitsIcEEEERNS_13basic_ostreamIcT_EES6_PKc, symObjAddr: 0x1B0, symBinAddr: 0x100003A28, symSize: 0x48 }
  - { offsetInCU: 0x4FD5, offset: 0xF5BF, size: 0x8, addend: 0x0, symName: __ZNSt3__14endlB8ne180100IcNS_11char_traitsIcEEEERNS_13basic_ostreamIT_T0_EES7_, symObjAddr: 0x224, symBinAddr: 0x100003A9C, symSize: 0x58 }
  - { offsetInCU: 0x5015, offset: 0xF5FF, size: 0x8, addend: 0x0, symName: __ZNSt3__116__pad_and_outputB8ne180100IcNS_11char_traitsIcEEEENS_19ostreambuf_iteratorIT_T0_EES6_PKS4_S8_S8_RNS_8ios_baseES4_, symObjAddr: 0xB78, symBinAddr: 0x1000043BC, symSize: 0x240 }
  - { offsetInCU: 0x50E5, offset: 0xF6CF, size: 0x8, addend: 0x0, symName: __ZNSt3__112__to_addressB8ne180100IKcEEPT_S3_, symObjAddr: 0x10EC, symBinAddr: 0x10000482C, symSize: 0x14 }
  - { offsetInCU: 0x514D, offset: 0xF737, size: 0x8, addend: 0x0, symName: __ZNSt3__19use_facetB8ne180100INS_5ctypeIcEEEERKT_RKNS_6localeE, symObjAddr: 0x136C, symBinAddr: 0x100004A3C, symSize: 0x2C }
  - { offsetInCU: 0x5625, offset: 0xFC0F, size: 0x8, addend: 0x0, symName: __ZNSt3__125__throw_bad_function_callB8ne180100Ev, symObjAddr: 0x1478, symBinAddr: 0x100004B24, symSize: 0x38 }
  - { offsetInCU: 0x8A9C, offset: 0x13086, size: 0x8, addend: 0x0, symName: __ZN6ButtonC2Eiiii9SDL_ColorNSt3__18functionIFvvEEE, symObjAddr: 0x0, symBinAddr: 0x100003878, symSize: 0x17C }
  - { offsetInCU: 0x8B1B, offset: 0x13105, size: 0x8, addend: 0x0, symName: __ZNSt3__18functionIFvvEEC1ERKS2_, symObjAddr: 0x17C, symBinAddr: 0x1000039F4, symSize: 0x34 }
  - { offsetInCU: 0x8B54, offset: 0x1313E, size: 0x8, addend: 0x0, symName: __ZNSt3__113basic_ostreamIcNS_11char_traitsIcEEElsB8ne180100EPFRS3_S4_E, symObjAddr: 0x1F8, symBinAddr: 0x100003A70, symSize: 0x2C }
  - { offsetInCU: 0x8B86, offset: 0x13170, size: 0x8, addend: 0x0, symName: __ZNSt3__18functionIFvvEED1Ev, symObjAddr: 0x27C, symBinAddr: 0x100003AF4, symSize: 0x2C }
  - { offsetInCU: 0x8BB0, offset: 0x1319A, size: 0x8, addend: 0x0, symName: __ZN6ButtonC1Eiiii9SDL_ColorNSt3__18functionIFvvEEE, symObjAddr: 0x2A8, symBinAddr: 0x100003B20, symSize: 0x6C }
  - { offsetInCU: 0x8C2F, offset: 0x13219, size: 0x8, addend: 0x0, symName: __ZN6ButtonC2EP8GameTextiiii9SDL_ColorNSt3__18functionIFvvEEE, symObjAddr: 0x314, symBinAddr: 0x100003B8C, symSize: 0x1F8 }
  - { offsetInCU: 0x8CD2, offset: 0x132BC, size: 0x8, addend: 0x0, symName: __ZN6ButtonC1EP8GameTextiiii9SDL_ColorNSt3__18functionIFvvEEE, symObjAddr: 0x50C, symBinAddr: 0x100003D84, symSize: 0x74 }
  - { offsetInCU: 0x8D5F, offset: 0x13349, size: 0x8, addend: 0x0, symName: __ZN6Button6renderEP12SDL_Renderer, symObjAddr: 0x580, symBinAddr: 0x100003DF8, symSize: 0x78 }
  - { offsetInCU: 0x8D93, offset: 0x1337D, size: 0x8, addend: 0x0, symName: __ZN6Button11handleEventEP9SDL_Event, symObjAddr: 0x5F8, symBinAddr: 0x100003E70, symSize: 0xFC }
  - { offsetInCU: 0x8DFF, offset: 0x133E9, size: 0x8, addend: 0x0, symName: __ZNKSt3__18functionIFvvEEclEv, symObjAddr: 0x6F4, symBinAddr: 0x100003F6C, symSize: 0x24 }
  - { offsetInCU: 0x8E25, offset: 0x1340F, size: 0x8, addend: 0x0, symName: __ZNSt3__18functionIFvvEEC2ERKS2_, symObjAddr: 0x718, symBinAddr: 0x100003F90, symSize: 0x34 }
  - { offsetInCU: 0x8E5E, offset: 0x13448, size: 0x8, addend: 0x0, symName: __ZNSt3__110__function12__value_funcIFvvEEC1B8ne180100ERKS3_, symObjAddr: 0x74C, symBinAddr: 0x100003FC4, symSize: 0x34 }
  - { offsetInCU: 0x8E95, offset: 0x1347F, size: 0x8, addend: 0x0, symName: __ZNSt3__110__function12__value_funcIFvvEEC2B8ne180100ERKS3_, symObjAddr: 0x780, symBinAddr: 0x100003FF8, symSize: 0xC0 }
  - { offsetInCU: 0x8ECD, offset: 0x134B7, size: 0x8, addend: 0x0, symName: __ZNSt3__110__function12__value_funcIFvvEE9__as_baseB8ne180100EPv, symObjAddr: 0x840, symBinAddr: 0x1000040B8, symSize: 0x14 }
  - { offsetInCU: 0x8EF0, offset: 0x134DA, size: 0x8, addend: 0x0, symName: __ZNSt3__18functionIFvvEED2Ev, symObjAddr: 0x854, symBinAddr: 0x1000040CC, symSize: 0x2C }
  - { offsetInCU: 0x8F1A, offset: 0x13504, size: 0x8, addend: 0x0, symName: __ZNSt3__110__function12__value_funcIFvvEED1B8ne180100Ev, symObjAddr: 0x880, symBinAddr: 0x1000040F8, symSize: 0x2C }
  - { offsetInCU: 0x8F42, offset: 0x1352C, size: 0x8, addend: 0x0, symName: __ZNSt3__110__function12__value_funcIFvvEED2B8ne180100Ev, symObjAddr: 0x8AC, symBinAddr: 0x100004124, symSize: 0x90 }
  - { offsetInCU: 0x8F89, offset: 0x13573, size: 0x8, addend: 0x0, symName: __ZNKSt3__113basic_ostreamIcNS_11char_traitsIcEEE6sentrycvbB8ne180100Ev, symObjAddr: 0xB5C, symBinAddr: 0x1000043A0, symSize: 0x1C }
  - { offsetInCU: 0x8FAC, offset: 0x13596, size: 0x8, addend: 0x0, symName: __ZNSt3__119ostreambuf_iteratorIcNS_11char_traitsIcEEEC1B8ne180100ERNS_13basic_ostreamIcS2_EE, symObjAddr: 0xDB8, symBinAddr: 0x1000045FC, symSize: 0x34 }
  - { offsetInCU: 0x8FE3, offset: 0x135CD, size: 0x8, addend: 0x0, symName: __ZNKSt3__18ios_base5flagsB8ne180100Ev, symObjAddr: 0xDEC, symBinAddr: 0x100004630, symSize: 0x18 }
  - { offsetInCU: 0x9008, offset: 0x135F2, size: 0x8, addend: 0x0, symName: __ZNKSt3__19basic_iosIcNS_11char_traitsIcEEE4fillB8ne180100Ev, symObjAddr: 0xE04, symBinAddr: 0x100004648, symSize: 0x64 }
  - { offsetInCU: 0x902F, offset: 0x13619, size: 0x8, addend: 0x0, symName: __ZNKSt3__119ostreambuf_iteratorIcNS_11char_traitsIcEEE6failedB8ne180100Ev, symObjAddr: 0xE68, symBinAddr: 0x1000046AC, symSize: 0x24 }
  - { offsetInCU: 0x9052, offset: 0x1363C, size: 0x8, addend: 0x0, symName: __ZNSt3__19basic_iosIcNS_11char_traitsIcEEE8setstateB8ne180100Ej, symObjAddr: 0xE8C, symBinAddr: 0x1000046D0, symSize: 0x2C }
  - { offsetInCU: 0x9086, offset: 0x13670, size: 0x8, addend: 0x0, symName: __ZNKSt3__18ios_base5widthB8ne180100Ev, symObjAddr: 0xEC4, symBinAddr: 0x1000046FC, symSize: 0x18 }
  - { offsetInCU: 0x90AB, offset: 0x13695, size: 0x8, addend: 0x0, symName: __ZNSt3__115basic_streambufIcNS_11char_traitsIcEEE5sputnB8ne180100EPKcl, symObjAddr: 0xEDC, symBinAddr: 0x100004714, symSize: 0x3C }
  - { offsetInCU: 0x90EB, offset: 0x136D5, size: 0x8, addend: 0x0, symName: __ZNSt3__112basic_stringIcNS_11char_traitsIcEENS_9allocatorIcEEEC1B8ne180100Emc, symObjAddr: 0xF18, symBinAddr: 0x100004750, symSize: 0x3C }
  - { offsetInCU: 0x9131, offset: 0x1371B, size: 0x8, addend: 0x0, symName: __ZNKSt3__112basic_stringIcNS_11char_traitsIcEENS_9allocatorIcEEE4dataB8ne180100Ev, symObjAddr: 0xF54, symBinAddr: 0x10000478C, symSize: 0x28 }
  - { offsetInCU: 0x9156, offset: 0x13740, size: 0x8, addend: 0x0, symName: __ZNSt3__18ios_base5widthB8ne180100El, symObjAddr: 0xF7C, symBinAddr: 0x1000047B4, symSize: 0x2C }
  - { offsetInCU: 0x9199, offset: 0x13783, size: 0x8, addend: 0x0, symName: __ZNSt3__112basic_stringIcNS_11char_traitsIcEENS_9allocatorIcEEEC2B8ne180100Emc, symObjAddr: 0xFA8, symBinAddr: 0x1000047E0, symSize: 0x4C }
  - { offsetInCU: 0x91DF, offset: 0x137C9, size: 0x8, addend: 0x0, symName: __ZNKSt3__112basic_stringIcNS_11char_traitsIcEENS_9allocatorIcEEE13__get_pointerB8ne180100Ev, symObjAddr: 0x1100, symBinAddr: 0x100004840, symSize: 0x54 }
  - { offsetInCU: 0x9203, offset: 0x137ED, size: 0x8, addend: 0x0, symName: __ZNKSt3__112basic_stringIcNS_11char_traitsIcEENS_9allocatorIcEEE18__get_long_pointerB8ne180100Ev, symObjAddr: 0x118C, symBinAddr: 0x100004894, symSize: 0x28 }
  - { offsetInCU: 0x9227, offset: 0x13811, size: 0x8, addend: 0x0, symName: __ZNKSt3__112basic_stringIcNS_11char_traitsIcEENS_9allocatorIcEEE19__get_short_pointerB8ne180100Ev, symObjAddr: 0x11B4, symBinAddr: 0x1000048BC, symSize: 0x28 }
  - { offsetInCU: 0x924C, offset: 0x13836, size: 0x8, addend: 0x0, symName: __ZNSt3__114pointer_traitsIPKcE10pointer_toB8ne180100ERS1_, symObjAddr: 0x1214, symBinAddr: 0x1000048E4, symSize: 0x14 }
  - { offsetInCU: 0x926E, offset: 0x13858, size: 0x8, addend: 0x0, symName: __ZNSt3__119ostreambuf_iteratorIcNS_11char_traitsIcEEEC2B8ne180100ERNS_13basic_ostreamIcS2_EE, symObjAddr: 0x1228, symBinAddr: 0x1000048F8, symSize: 0x54 }
  - { offsetInCU: 0x92A4, offset: 0x1388E, size: 0x8, addend: 0x0, symName: __ZNKSt3__19basic_iosIcNS_11char_traitsIcEEE5rdbufB8ne180100Ev, symObjAddr: 0x127C, symBinAddr: 0x10000494C, symSize: 0x24 }
  - { offsetInCU: 0x92CB, offset: 0x138B5, size: 0x8, addend: 0x0, symName: __ZNKSt3__18ios_base5rdbufB8ne180100Ev, symObjAddr: 0x12A0, symBinAddr: 0x100004970, symSize: 0x18 }
  - { offsetInCU: 0x92EF, offset: 0x138D9, size: 0x8, addend: 0x0, symName: __ZNSt3__111char_traitsIcE11eq_int_typeB8ne180100Eii, symObjAddr: 0x12B8, symBinAddr: 0x100004988, symSize: 0x28 }
  - { offsetInCU: 0x9322, offset: 0x1390C, size: 0x8, addend: 0x0, symName: __ZNSt3__111char_traitsIcE3eofB8ne180100Ev, symObjAddr: 0x12E0, symBinAddr: 0x1000049B0, symSize: 0x8 }
  - { offsetInCU: 0x9335, offset: 0x1391F, size: 0x8, addend: 0x0, symName: __ZNKSt3__19basic_iosIcNS_11char_traitsIcEEE5widenB8ne180100Ec, symObjAddr: 0x12E8, symBinAddr: 0x1000049B8, symSize: 0x84 }
  - { offsetInCU: 0x93A1, offset: 0x1398B, size: 0x8, addend: 0x0, symName: __ZNKSt3__15ctypeIcE5widenB8ne180100Ec, symObjAddr: 0x1398, symBinAddr: 0x100004A68, symSize: 0x38 }
  - { offsetInCU: 0x93D4, offset: 0x139BE, size: 0x8, addend: 0x0, symName: __ZNSt3__18ios_base8setstateB8ne180100Ej, symObjAddr: 0x13D0, symBinAddr: 0x100004AA0, symSize: 0x34 }
  - { offsetInCU: 0x9409, offset: 0x139F3, size: 0x8, addend: 0x0, symName: __ZNKSt3__110__function12__value_funcIFvvEEclB8ne180100Ev, symObjAddr: 0x1428, symBinAddr: 0x100004AD4, symSize: 0x50 }
  - { offsetInCU: 0x9441, offset: 0x13A2B, size: 0x8, addend: 0x0, symName: __ZNSt3__117bad_function_callC1B8ne180100Ev, symObjAddr: 0x14B0, symBinAddr: 0x100004B5C, symSize: 0x2C }
  - { offsetInCU: 0x9469, offset: 0x13A53, size: 0x8, addend: 0x0, symName: __ZNSt3__117bad_function_callD1Ev, symObjAddr: 0x14DC, symBinAddr: 0x100004B88, symSize: 0x2C }
  - { offsetInCU: 0x9491, offset: 0x13A7B, size: 0x8, addend: 0x0, symName: __ZNSt3__117bad_function_callC2B8ne180100Ev, symObjAddr: 0x1508, symBinAddr: 0x100004BB4, symSize: 0x44 }
  - { offsetInCU: 0x94BA, offset: 0x13AA4, size: 0x8, addend: 0x0, symName: __ZNSt9exceptionC2B8ne180100Ev, symObjAddr: 0x154C, symBinAddr: 0x100004BF8, symSize: 0x24 }
  - { offsetInCU: 0x94E1, offset: 0x13ACB, size: 0x8, addend: 0x0, symName: __ZNSt3__117bad_function_callD0Ev, symObjAddr: 0x1570, symBinAddr: 0x100004C1C, symSize: 0x30 }
  - { offsetInCU: 0x9509, offset: 0x13AF3, size: 0x8, addend: 0x0, symName: __ZNSt3__117bad_function_callD2Ev, symObjAddr: 0x15A0, symBinAddr: 0x100004C4C, symSize: 0x2C }
  - { offsetInCU: 0x52, offset: 0x13BCC, size: 0x8, addend: 0x0, symName: __ZL11SuitStrings, symObjAddr: 0x1F60, symBinAddr: 0x100018000, symSize: 0x0 }
  - { offsetInCU: 0x213E, offset: 0x15CB8, size: 0x8, addend: 0x0, symName: __ZNSt3__16copy_nB8ne180100IPKcmPcLi0EEET1_T_T0_S4_, symObjAddr: 0x14BC, symBinAddr: 0x100005BC8, symSize: 0x44 }
  - { offsetInCU: 0x2F12, offset: 0x16A8C, size: 0x8, addend: 0x0, symName: __ZNSt3__1plB8ne180100IcNS_11char_traitsIcEENS_9allocatorIcEEEENS_12basic_stringIT_T0_T1_EEOS9_RKS9_, symObjAddr: 0x340, symBinAddr: 0x100004F84, symSize: 0x40 }
  - { offsetInCU: 0x2F6A, offset: 0x16AE4, size: 0x8, addend: 0x0, symName: __ZNSt3__1plB8ne180100IcNS_11char_traitsIcEENS_9allocatorIcEEEENS_12basic_stringIT_T0_T1_EERKS9_PKS6_, symObjAddr: 0x380, symBinAddr: 0x100004FC4, symSize: 0x11C }
  - { offsetInCU: 0x303E, offset: 0x16BB8, size: 0x8, addend: 0x0, symName: __ZNSt3__112__to_addressB8ne180100IcEEPT_S2_, symObjAddr: 0xCE4, symBinAddr: 0x10000557C, symSize: 0x14 }
  - { offsetInCU: 0x3275, offset: 0x16DEF, size: 0x8, addend: 0x0, symName: __ZNSt3__14copyB8ne180100IPKcPcEET0_T_S5_S4_, symObjAddr: 0x1500, symBinAddr: 0x100005C0C, symSize: 0x40 }
  - { offsetInCU: 0x32CF, offset: 0x16E49, size: 0x8, addend: 0x0, symName: __ZNSt3__16__copyB8ne180100INS_17_ClassicAlgPolicyEPKcS3_PcEENS_4pairIT0_T2_EES6_T1_S7_, symObjAddr: 0x1540, symBinAddr: 0x100005C4C, symSize: 0x44 }
  - { offsetInCU: 0x333B, offset: 0x16EB5, size: 0x8, addend: 0x0, symName: __ZNSt3__123__dispatch_copy_or_moveB8ne180100INS_17_ClassicAlgPolicyENS_11__copy_loopIS1_EENS_14__copy_trivialEPKcS6_PcEENS_4pairIT2_T4_EES9_T3_SA_, symObjAddr: 0x1584, symBinAddr: 0x100005C90, symSize: 0x44 }
  - { offsetInCU: 0x33B9, offset: 0x16F33, size: 0x8, addend: 0x0, symName: __ZNSt3__121__unwrap_and_dispatchB8ne180100INS_10__overloadINS_11__copy_loopINS_17_ClassicAlgPolicyEEENS_14__copy_trivialEEEPKcS8_PcLi0EEENS_4pairIT0_T2_EESB_T1_SC_, symObjAddr: 0x15C8, symBinAddr: 0x100005CD4, symSize: 0xB4 }
  - { offsetInCU: 0x3447, offset: 0x16FC1, size: 0x8, addend: 0x0, symName: __ZNSt3__114__unwrap_rangeB8ne180100IPKcS2_EENS_4pairIT0_S4_EET_S6_, symObjAddr: 0x167C, symBinAddr: 0x100005D88, symSize: 0x60 }
  - { offsetInCU: 0x35DC, offset: 0x17156, size: 0x8, addend: 0x0, symName: __ZNSt3__113__unwrap_iterB8ne180100IPcNS_18__unwrap_iter_implIS1_Lb1EEELi0EEEDTclsrT0_8__unwrapclsr3stdE7declvalIT_EEEES5_, symObjAddr: 0x1724, symBinAddr: 0x100005E30, symSize: 0x24 }
  - { offsetInCU: 0x3620, offset: 0x1719A, size: 0x8, addend: 0x0, symName: __ZNSt3__19make_pairB8ne180100IPKcPcEENS_4pairINS_18__unwrap_ref_decayIT_E4typeENS5_IT0_E4typeEEEOS6_OS9_, symObjAddr: 0x1748, symBinAddr: 0x100005E54, symSize: 0x38 }
  - { offsetInCU: 0x366F, offset: 0x171E9, size: 0x8, addend: 0x0, symName: __ZNSt3__114__rewrap_rangeB8ne180100IPKcS2_EET_S3_T0_, symObjAddr: 0x1780, symBinAddr: 0x100005E8C, symSize: 0x2C }
  - { offsetInCU: 0x36BB, offset: 0x17235, size: 0x8, addend: 0x0, symName: __ZNSt3__113__rewrap_iterB8ne180100IPcS1_NS_18__unwrap_iter_implIS1_Lb1EEEEET_S4_T0_, symObjAddr: 0x17AC, symBinAddr: 0x100005EB8, symSize: 0x3C }
  - { offsetInCU: 0x3710, offset: 0x1728A, size: 0x8, addend: 0x0, symName: __ZNSt3__19make_pairB8ne180100IPKcS2_EENS_4pairINS_18__unwrap_ref_decayIT_E4typeENS4_IT0_E4typeEEEOS5_OS8_, symObjAddr: 0x17E8, symBinAddr: 0x100005EF4, symSize: 0x38 }
  - { offsetInCU: 0x375F, offset: 0x172D9, size: 0x8, addend: 0x0, symName: __ZNSt3__113__unwrap_iterB8ne180100IPKcNS_18__unwrap_iter_implIS2_Lb1EEELi0EEEDTclsrT0_8__unwrapclsr3stdE7declvalIT_EEEES6_, symObjAddr: 0x1820, symBinAddr: 0x100005F2C, symSize: 0x24 }
  - { offsetInCU: 0x38CA, offset: 0x17444, size: 0x8, addend: 0x0, symName: __ZNSt3__119__copy_trivial_implB8ne180100IKccEENS_4pairIPT_PT0_EES4_S4_S6_, symObjAddr: 0x18EC, symBinAddr: 0x100005FE4, symSize: 0x78 }
  - { offsetInCU: 0x3932, offset: 0x174AC, size: 0x8, addend: 0x0, symName: __ZNSt3__119__constexpr_memmoveB8ne180100IcKcLi0EEEPT_S3_PT0_NS_15__element_countE, symObjAddr: 0x1964, symBinAddr: 0x10000605C, symSize: 0x64 }
  - { offsetInCU: 0x39A0, offset: 0x1751A, size: 0x8, addend: 0x0, symName: __ZNSt3__19make_pairB8ne180100IRPKcPcEENS_4pairINS_18__unwrap_ref_decayIT_E4typeENS6_IT0_E4typeEEEOS7_OSA_, symObjAddr: 0x19C8, symBinAddr: 0x1000060C0, symSize: 0x38 }
  - { offsetInCU: 0x3A42, offset: 0x175BC, size: 0x8, addend: 0x0, symName: __ZNSt3__113__rewrap_iterB8ne180100IPKcS2_NS_18__unwrap_iter_implIS2_Lb1EEEEET_S5_T0_, symObjAddr: 0x1B04, symBinAddr: 0x1000061FC, symSize: 0x3C }
  - { offsetInCU: 0x3A97, offset: 0x17611, size: 0x8, addend: 0x0, symName: __ZNSt3__16fill_nB8ne180100IPcmcEET_S2_T0_RKT1_, symObjAddr: 0x1C88, symBinAddr: 0x1000062C8, symSize: 0x44 }
  - { offsetInCU: 0x3AFA, offset: 0x17674, size: 0x8, addend: 0x0, symName: __ZNSt3__18__fill_nB8ne180100IPcmcEET_S2_T0_RKT1_, symObjAddr: 0x1CCC, symBinAddr: 0x10000630C, symSize: 0x64 }
  - { offsetInCU: 0x3B5D, offset: 0x176D7, size: 0x8, addend: 0x0, symName: __ZNSt3__121__convert_to_integralB8ne180100Em, symObjAddr: 0x1D30, symBinAddr: 0x100006370, symSize: 0x14 }
  - { offsetInCU: 0x5BE4, offset: 0x1975E, size: 0x8, addend: 0x0, symName: __ZN4CardC2Ei4SuitP11SDL_Texture, symObjAddr: 0x0, symBinAddr: 0x100004C78, symSize: 0x38 }
  - { offsetInCU: 0x5C39, offset: 0x197B3, size: 0x8, addend: 0x0, symName: __ZN4CardC1Ei4SuitP11SDL_Texture, symObjAddr: 0x38, symBinAddr: 0x100004CB0, symSize: 0x44 }
  - { offsetInCU: 0x5C8D, offset: 0x19807, size: 0x8, addend: 0x0, symName: __Z13getSuitString4Suit, symObjAddr: 0x7C, symBinAddr: 0x100004CF4, symSize: 0x48 }
  - { offsetInCU: 0x5CBE, offset: 0x19838, size: 0x8, addend: 0x0, symName: __ZN4Card11getCardNameEv, symObjAddr: 0xF8, symBinAddr: 0x100004D3C, symSize: 0x1B4 }
  - { offsetInCU: 0x5CF2, offset: 0x1986C, size: 0x8, addend: 0x0, symName: __ZNSt3__112basic_stringIcNS_11char_traitsIcEENS_9allocatorIcEEEaSB8ne180100EPKc, symObjAddr: 0x2E0, symBinAddr: 0x100004F24, symSize: 0x2C }
  - { offsetInCU: 0x5D25, offset: 0x1989F, size: 0x8, addend: 0x0, symName: __ZNSt3__112basic_stringIcNS_11char_traitsIcEENS_9allocatorIcEEEaSB8ne180100EOS5_, symObjAddr: 0x30C, symBinAddr: 0x100004F50, symSize: 0x34 }
  - { offsetInCU: 0x5D58, offset: 0x198D2, size: 0x8, addend: 0x0, symName: __ZNK4Card10getTextureEv, symObjAddr: 0x49C, symBinAddr: 0x1000050E0, symSize: 0x18 }
  - { offsetInCU: 0x5D7E, offset: 0x198F8, size: 0x8, addend: 0x0, symName: __ZN4Card10setTextureEP11SDL_Texture, symObjAddr: 0x4B4, symBinAddr: 0x1000050F8, symSize: 0x20 }
  - { offsetInCU: 0x5DB7, offset: 0x19931, size: 0x8, addend: 0x0, symName: __ZNSt3__112basic_stringIcNS_11char_traitsIcEENS_9allocatorIcEEE13__move_assignB8ne180100ERS5_NS_17integral_constantIbLb1EEE, symObjAddr: 0x688, symBinAddr: 0x100005118, symSize: 0x17C }
  - { offsetInCU: 0x5E15, offset: 0x1998F, size: 0x8, addend: 0x0, symName: __ZNSt3__116allocator_traitsINS_9allocatorIcEEE10deallocateB8ne180100ERS2_Pcm, symObjAddr: 0x84C, symBinAddr: 0x100005294, symSize: 0x34 }
  - { offsetInCU: 0x5E56, offset: 0x199D0, size: 0x8, addend: 0x0, symName: __ZNSt3__112basic_stringIcNS_11char_traitsIcEENS_9allocatorIcEEE7__allocB8ne180100Ev, symObjAddr: 0x880, symBinAddr: 0x1000052C8, symSize: 0x24 }
  - { offsetInCU: 0x5E7A, offset: 0x199F4, size: 0x8, addend: 0x0, symName: __ZNSt3__112basic_stringIcNS_11char_traitsIcEENS_9allocatorIcEEE18__get_long_pointerB8ne180100Ev, symObjAddr: 0x8A4, symBinAddr: 0x1000052EC, symSize: 0x28 }
  - { offsetInCU: 0x5E9E, offset: 0x19A18, size: 0x8, addend: 0x0, symName: __ZNKSt3__112basic_stringIcNS_11char_traitsIcEENS_9allocatorIcEEE14__get_long_capB8ne180100Ev, symObjAddr: 0x8CC, symBinAddr: 0x100005314, symSize: 0x30 }
  - { offsetInCU: 0x5EC2, offset: 0x19A3C, size: 0x8, addend: 0x0, symName: __ZNSt3__112basic_stringIcNS_11char_traitsIcEENS_9allocatorIcEEE19__move_assign_allocB8ne180100ERS5_, symObjAddr: 0x950, symBinAddr: 0x100005344, symSize: 0x2C }
  - { offsetInCU: 0x5EF5, offset: 0x19A6F, size: 0x8, addend: 0x0, symName: __ZNSt3__112basic_stringIcNS_11char_traitsIcEENS_9allocatorIcEEE16__set_short_sizeB8ne180100Em, symObjAddr: 0x9A0, symBinAddr: 0x100005370, symSize: 0x78 }
  - { offsetInCU: 0x5F28, offset: 0x19AA2, size: 0x8, addend: 0x0, symName: __ZNSt3__111char_traitsIcE6assignB8ne180100ERcRKc, symObjAddr: 0xA18, symBinAddr: 0x1000053E8, symSize: 0x24 }
  - { offsetInCU: 0x5F59, offset: 0x19AD3, size: 0x8, addend: 0x0, symName: __ZNSt3__112basic_stringIcNS_11char_traitsIcEENS_9allocatorIcEEE19__get_short_pointerB8ne180100Ev, symObjAddr: 0xA3C, symBinAddr: 0x10000540C, symSize: 0x28 }
  - { offsetInCU: 0x5F7D, offset: 0x19AF7, size: 0x8, addend: 0x0, symName: __ZNKSt3__112basic_stringIcNS_11char_traitsIcEENS_9allocatorIcEEE17__annotate_shrinkB8ne180100Em, symObjAddr: 0xA64, symBinAddr: 0x100005434, symSize: 0x14 }
  - { offsetInCU: 0x5FB0, offset: 0x19B2A, size: 0x8, addend: 0x0, symName: __ZNSt3__19allocatorIcE10deallocateB8ne180100EPcm, symObjAddr: 0xAF8, symBinAddr: 0x100005448, symSize: 0x40 }
  - { offsetInCU: 0x5FF0, offset: 0x19B6A, size: 0x8, addend: 0x0, symName: __ZNSt3__117__compressed_pairINS_12basic_stringIcNS_11char_traitsIcEENS_9allocatorIcEEE5__repES5_E6secondB8ne180100Ev, symObjAddr: 0xBB4, symBinAddr: 0x100005488, symSize: 0x24 }
  - { offsetInCU: 0x6014, offset: 0x19B8E, size: 0x8, addend: 0x0, symName: __ZNSt3__122__compressed_pair_elemINS_9allocatorIcEELi1ELb1EE5__getB8ne180100Ev, symObjAddr: 0xBD8, symBinAddr: 0x1000054AC, symSize: 0x14 }
  - { offsetInCU: 0x6038, offset: 0x19BB2, size: 0x8, addend: 0x0, symName: __ZNSt3__112basic_stringIcNS_11char_traitsIcEENS_9allocatorIcEEE19__move_assign_allocB8ne180100ERS5_NS_17integral_constantIbLb1EEE, symObjAddr: 0xC14, symBinAddr: 0x1000054C0, symSize: 0x38 }
  - { offsetInCU: 0x6076, offset: 0x19BF0, size: 0x8, addend: 0x0, symName: __ZNSt3__114pointer_traitsIPcE10pointer_toB8ne180100ERc, symObjAddr: 0xC60, symBinAddr: 0x1000054F8, symSize: 0x14 }
  - { offsetInCU: 0x60A3, offset: 0x19C1D, size: 0x8, addend: 0x0, symName: __ZNSt3__116allocator_traitsINS_9allocatorIcEEE37select_on_container_copy_constructionB8ne180100IS2_vvEES2_RKS2_, symObjAddr: 0xC74, symBinAddr: 0x10000550C, symSize: 0x10 }
  - { offsetInCU: 0x60D2, offset: 0x19C4C, size: 0x8, addend: 0x0, symName: __ZNKSt3__112basic_stringIcNS_11char_traitsIcEENS_9allocatorIcEEE13get_allocatorB8ne180100Ev, symObjAddr: 0xC84, symBinAddr: 0x10000551C, symSize: 0x24 }
  - { offsetInCU: 0x60F6, offset: 0x19C70, size: 0x8, addend: 0x0, symName: __ZNSt3__112basic_stringIcNS_11char_traitsIcEENS_9allocatorIcEEEC1B8ne180100ENS_24__uninitialized_size_tagEmRKS4_, symObjAddr: 0xCA8, symBinAddr: 0x100005540, symSize: 0x3C }
  - { offsetInCU: 0x6147, offset: 0x19CC1, size: 0x8, addend: 0x0, symName: __ZNSt3__112basic_stringIcNS_11char_traitsIcEENS_9allocatorIcEEE13__get_pointerB8ne180100Ev, symObjAddr: 0xCF8, symBinAddr: 0x100005590, symSize: 0x54 }
  - { offsetInCU: 0x616B, offset: 0x19CE5, size: 0x8, addend: 0x0, symName: __ZNSt3__111char_traitsIcE4copyB8ne180100EPcPKcm, symObjAddr: 0xD4C, symBinAddr: 0x1000055E4, symSize: 0x40 }
  - { offsetInCU: 0x61A9, offset: 0x19D23, size: 0x8, addend: 0x0, symName: __ZNSt3__111char_traitsIcE6assignB8ne180100EPcmc, symObjAddr: 0xDB4, symBinAddr: 0x100005624, symSize: 0x44 }
  - { offsetInCU: 0x61E7, offset: 0x19D61, size: 0x8, addend: 0x0, symName: __ZNKSt3__112basic_stringIcNS_11char_traitsIcEENS_9allocatorIcEEE7__allocB8ne180100Ev, symObjAddr: 0xDF8, symBinAddr: 0x100005668, symSize: 0x24 }
  - { offsetInCU: 0x620B, offset: 0x19D85, size: 0x8, addend: 0x0, symName: __ZNKSt3__117__compressed_pairINS_12basic_stringIcNS_11char_traitsIcEENS_9allocatorIcEEE5__repES5_E6secondB8ne180100Ev, symObjAddr: 0xE1C, symBinAddr: 0x10000568C, symSize: 0x24 }
  - { offsetInCU: 0x622F, offset: 0x19DA9, size: 0x8, addend: 0x0, symName: __ZNKSt3__122__compressed_pair_elemINS_9allocatorIcEELi1ELb1EE5__getB8ne180100Ev, symObjAddr: 0xE40, symBinAddr: 0x1000056B0, symSize: 0x14 }
  - { offsetInCU: 0x6253, offset: 0x19DCD, size: 0x8, addend: 0x0, symName: __ZNSt3__112basic_stringIcNS_11char_traitsIcEENS_9allocatorIcEEEC2B8ne180100ENS_24__uninitialized_size_tagEmRKS4_, symObjAddr: 0xE54, symBinAddr: 0x1000056C4, symSize: 0x11C }
  - { offsetInCU: 0x62D0, offset: 0x19E4A, size: 0x8, addend: 0x0, symName: __ZNSt3__117__compressed_pairINS_12basic_stringIcNS_11char_traitsIcEENS_9allocatorIcEEE5__repES5_EC1B8ne180100INS_18__default_init_tagERKS5_EEOT_OT0_, symObjAddr: 0xF70, symBinAddr: 0x1000057E0, symSize: 0x3C }
  - { offsetInCU: 0x6326, offset: 0x19EA0, size: 0x8, addend: 0x0, symName: __ZNKSt3__112basic_stringIcNS_11char_traitsIcEENS_9allocatorIcEEE8max_sizeB8ne180100Ev, symObjAddr: 0xFAC, symBinAddr: 0x10000581C, symSize: 0xAC }
  - { offsetInCU: 0x6376, offset: 0x19EF0, size: 0x8, addend: 0x0, symName: __ZNKSt3__112basic_stringIcNS_11char_traitsIcEENS_9allocatorIcEEE20__throw_length_errorB8ne180100Ev, symObjAddr: 0x1058, symBinAddr: 0x1000058C8, symSize: 0x1C }
  - { offsetInCU: 0x639A, offset: 0x19F14, size: 0x8, addend: 0x0, symName: __ZNSt3__112basic_stringIcNS_11char_traitsIcEENS_9allocatorIcEEE13__fits_in_ssoB8ne180100Em, symObjAddr: 0x1074, symBinAddr: 0x1000058E4, symSize: 0x20 }
  - { offsetInCU: 0x63BE, offset: 0x19F38, size: 0x8, addend: 0x0, symName: __ZNSt3__112basic_stringIcNS_11char_traitsIcEENS_9allocatorIcEEE11__recommendB8ne180100Em, symObjAddr: 0x1094, symBinAddr: 0x100005904, symSize: 0x84 }
  - { offsetInCU: 0x63F0, offset: 0x19F6A, size: 0x8, addend: 0x0, symName: __ZNSt3__116allocator_traitsINS_9allocatorIcEEE8allocateB8ne180100ERS2_m, symObjAddr: 0x1118, symBinAddr: 0x100005988, symSize: 0x2C }
  - { offsetInCU: 0x6422, offset: 0x19F9C, size: 0x8, addend: 0x0, symName: __ZNSt3__112basic_stringIcNS_11char_traitsIcEENS_9allocatorIcEEE16__begin_lifetimeB8ne180100EPcm, symObjAddr: 0x1144, symBinAddr: 0x1000059B4, symSize: 0x14 }
  - { offsetInCU: 0x6455, offset: 0x19FCF, size: 0x8, addend: 0x0, symName: __ZNSt3__112basic_stringIcNS_11char_traitsIcEENS_9allocatorIcEEE14__set_long_capB8ne180100Em, symObjAddr: 0x1158, symBinAddr: 0x1000059C8, symSize: 0x70 }
  - { offsetInCU: 0x6488, offset: 0x1A002, size: 0x8, addend: 0x0, symName: __ZNSt3__112basic_stringIcNS_11char_traitsIcEENS_9allocatorIcEEE18__set_long_pointerB8ne180100EPc, symObjAddr: 0x11C8, symBinAddr: 0x100005A38, symSize: 0x38 }
  - { offsetInCU: 0x64BB, offset: 0x1A035, size: 0x8, addend: 0x0, symName: __ZNSt3__112basic_stringIcNS_11char_traitsIcEENS_9allocatorIcEEE15__set_long_sizeB8ne180100Em, symObjAddr: 0x1200, symBinAddr: 0x100005A70, symSize: 0x38 }
  - { offsetInCU: 0x64EE, offset: 0x1A068, size: 0x8, addend: 0x0, symName: __ZNSt3__117__compressed_pairINS_12basic_stringIcNS_11char_traitsIcEENS_9allocatorIcEEE5__repES5_EC2B8ne180100INS_18__default_init_tagERKS5_EEOT_OT0_, symObjAddr: 0x1238, symBinAddr: 0x100005AA8, symSize: 0x40 }
  - { offsetInCU: 0x6544, offset: 0x1A0BE, size: 0x8, addend: 0x0, symName: __ZNSt3__122__compressed_pair_elemINS_9allocatorIcEELi1ELb1EEC2B8ne180100IRKS2_vEEOT_, symObjAddr: 0x1278, symBinAddr: 0x100005AE8, symSize: 0x18 }
  - { offsetInCU: 0x6584, offset: 0x1A0FE, size: 0x8, addend: 0x0, symName: __ZNSt3__116allocator_traitsINS_9allocatorIcEEE8max_sizeB8ne180100IS2_vEEmRKS2_, symObjAddr: 0x1290, symBinAddr: 0x100005B00, symSize: 0x24 }
  - { offsetInCU: 0x65B2, offset: 0x1A12C, size: 0x8, addend: 0x0, symName: __ZNSt3__114numeric_limitsImE3maxB8ne180100Ev, symObjAddr: 0x12B4, symBinAddr: 0x100005B24, symSize: 0x14 }
  - { offsetInCU: 0x65C5, offset: 0x1A13F, size: 0x8, addend: 0x0, symName: __ZNKSt3__19allocatorIcE8max_sizeB8ne180100Ev, symObjAddr: 0x12C8, symBinAddr: 0x100005B38, symSize: 0x14 }
  - { offsetInCU: 0x65EA, offset: 0x1A164, size: 0x8, addend: 0x0, symName: __ZNSt3__123__libcpp_numeric_limitsImLb1EE3maxB8ne180100Ev, symObjAddr: 0x12DC, symBinAddr: 0x100005B4C, symSize: 0x8 }
  - { offsetInCU: 0x65FD, offset: 0x1A177, size: 0x8, addend: 0x0, symName: __ZNSt3__112basic_stringIcNS_11char_traitsIcEENS_9allocatorIcEEE10__align_itB8ne180100ILm8EEEmm, symObjAddr: 0x13C8, symBinAddr: 0x100005B54, symSize: 0x1C }
  - { offsetInCU: 0x662B, offset: 0x1A1A5, size: 0x8, addend: 0x0, symName: __ZNSt3__19allocatorIcE8allocateB8ne180100Em, symObjAddr: 0x13E4, symBinAddr: 0x100005B70, symSize: 0x58 }
  - { offsetInCU: 0x6680, offset: 0x1A1FA, size: 0x8, addend: 0x0, symName: __ZNKSt3__114__copy_trivialclB8ne180100IKccLi0EEENS_4pairIPT_PT0_EES5_S5_S7_, symObjAddr: 0x16DC, symBinAddr: 0x100005DE8, symSize: 0x48 }
  - { offsetInCU: 0x6704, offset: 0x1A27E, size: 0x8, addend: 0x0, symName: __ZNSt3__14pairIPKcS2_EC1B8ne180100IS2_S2_Li0EEEOT_OT0_, symObjAddr: 0x1844, symBinAddr: 0x100005F50, symSize: 0x3C }
  - { offsetInCU: 0x6760, offset: 0x1A2DA, size: 0x8, addend: 0x0, symName: __ZNSt3__14pairIPKcS2_EC2B8ne180100IS2_S2_Li0EEEOT_OT0_, symObjAddr: 0x1880, symBinAddr: 0x100005F8C, symSize: 0x34 }
  - { offsetInCU: 0x67BC, offset: 0x1A336, size: 0x8, addend: 0x0, symName: __ZNSt3__118__unwrap_iter_implIPKcLb1EE8__unwrapB8ne180100ES2_, symObjAddr: 0x18B4, symBinAddr: 0x100005FC0, symSize: 0x24 }
  - { offsetInCU: 0x67E8, offset: 0x1A362, size: 0x8, addend: 0x0, symName: __ZNSt3__14pairIPKcPcEC1B8ne180100IRS2_S3_Li0EEEOT_OT0_, symObjAddr: 0x1A00, symBinAddr: 0x1000060F8, symSize: 0x3C }
  - { offsetInCU: 0x6844, offset: 0x1A3BE, size: 0x8, addend: 0x0, symName: __ZNSt3__14pairIPKcPcEC2B8ne180100IRS2_S3_Li0EEEOT_OT0_, symObjAddr: 0x1A3C, symBinAddr: 0x100006134, symSize: 0x34 }
  - { offsetInCU: 0x68A0, offset: 0x1A41A, size: 0x8, addend: 0x0, symName: __ZNSt3__118__unwrap_iter_implIPcLb1EE8__unwrapB8ne180100ES1_, symObjAddr: 0x1A70, symBinAddr: 0x100006168, symSize: 0x24 }
  - { offsetInCU: 0x68C2, offset: 0x1A43C, size: 0x8, addend: 0x0, symName: __ZNSt3__14pairIPKcPcEC1B8ne180100IS2_S3_Li0EEEOT_OT0_, symObjAddr: 0x1A94, symBinAddr: 0x10000618C, symSize: 0x3C }
  - { offsetInCU: 0x691E, offset: 0x1A498, size: 0x8, addend: 0x0, symName: __ZNSt3__14pairIPKcPcEC2B8ne180100IS2_S3_Li0EEEOT_OT0_, symObjAddr: 0x1AD0, symBinAddr: 0x1000061C8, symSize: 0x34 }
  - { offsetInCU: 0x697A, offset: 0x1A4F4, size: 0x8, addend: 0x0, symName: __ZNSt3__118__unwrap_iter_implIPKcLb1EE8__rewrapB8ne180100ES2_S2_, symObjAddr: 0x1B40, symBinAddr: 0x100006238, symSize: 0x48 }
  - { offsetInCU: 0x69AA, offset: 0x1A524, size: 0x8, addend: 0x0, symName: __ZNSt3__118__unwrap_iter_implIPcLb1EE8__rewrapB8ne180100ES1_S1_, symObjAddr: 0x1B88, symBinAddr: 0x100006280, symSize: 0x48 }
  - { offsetInCU: 0x69DA, offset: 0x1A554, size: 0x8, addend: 0x0, symName: __ZNSt3__112basic_stringIcNS_11char_traitsIcEENS_9allocatorIcEEE6appendB8ne180100ERKS5_, symObjAddr: 0x1D44, symBinAddr: 0x100006384, symSize: 0x4C }
  - { offsetInCU: 0x3566, offset: 0x1DB29, size: 0x8, addend: 0x0, symName: __ZNSt3__19__shuffleB8ne180100INS_17_ClassicAlgPolicyENS_11__wrap_iterIP4CardEES5_RNS_23mersenne_twister_engineIjLm32ELm624ELm397ELm31ELj2567483615ELm11ELj4294967295ELm7ELj2636928640ELm15ELj4022730752ELm18ELj1812433253EEEEET0_S9_T1_OT2_, symObjAddr: 0x2A78, symBinAddr: 0x100006EC0, symSize: 0x13C }
  - { offsetInCU: 0x47A8, offset: 0x1ED6B, size: 0x8, addend: 0x0, symName: __ZNSt3__1plB8ne180100IcNS_11char_traitsIcEENS_9allocatorIcEEEENS_12basic_stringIT_T0_T1_EEOS9_PKS6_, symObjAddr: 0x2E4, symBinAddr: 0x100006688, symSize: 0x40 }
  - { offsetInCU: 0x48E5, offset: 0x1EEA8, size: 0x8, addend: 0x0, symName: __ZNSt3__17shuffleB8ne180100INS_11__wrap_iterIP4CardEERNS_23mersenne_twister_engineIjLm32ELm624ELm397ELm31ELj2567483615ELm11ELj4294967295ELm7ELj2636928640ELm15ELj4022730752ELm18ELj1812433253EEEEEvT_S8_OT0_, symObjAddr: 0x614, symBinAddr: 0x100006914, symSize: 0x48 }
  - { offsetInCU: 0x49E9, offset: 0x1EFAC, size: 0x8, addend: 0x0, symName: __ZNSt3__1miB8ne180100IP4CardS2_EEDTmicldtfp_4baseEcldtfp0_4baseEERKNS_11__wrap_iterIT_EERKNS4_IT0_EE, symObjAddr: 0x2BD4, symBinAddr: 0x10000701C, symSize: 0x48 }
  - { offsetInCU: 0x4A35, offset: 0x1EFF8, size: 0x8, addend: 0x0, symName: __ZNSt3__1ltB8ne180100IP4CardEEbRKNS_11__wrap_iterIT_EES7_, symObjAddr: 0x2C78, symBinAddr: 0x1000070C0, symSize: 0x48 }
  - { offsetInCU: 0x4A78, offset: 0x1F03B, size: 0x8, addend: 0x0, symName: __ZNSt3__113__countl_zeroB8ne180100ImEEiT_, symObjAddr: 0x3030, symBinAddr: 0x100007478, symSize: 0x54 }
  - { offsetInCU: 0x4AAD, offset: 0x1F070, size: 0x8, addend: 0x0, symName: __ZNSt3__112__libcpp_clzB8ne180100Em, symObjAddr: 0x36C0, symBinAddr: 0x100007AF4, symSize: 0x1C }
  - { offsetInCU: 0x4AD9, offset: 0x1F09C, size: 0x8, addend: 0x0, symName: __ZNSt3__19iter_swapB8ne180100INS_11__wrap_iterIP4CardEES4_EEvT_T0_, symObjAddr: 0x3710, symBinAddr: 0x100007B3C, symSize: 0x50 }
  - { offsetInCU: 0x4B22, offset: 0x1F0E5, size: 0x8, addend: 0x0, symName: __ZNSt3__14swapB8ne180100I4CardEENS_9enable_ifIXaasr21is_move_constructibleIT_EE5valuesr18is_move_assignableIS3_EE5valueEvE4typeERS3_S6_, symObjAddr: 0x3760, symBinAddr: 0x100007B8C, symSize: 0x54 }
  - { offsetInCU: 0x4B73, offset: 0x1F136, size: 0x8, addend: 0x0, symName: __ZNSt3__1miB8ne180100IPK4CardS3_EEDTmicldtfp_4baseEcldtfp0_4baseEERKNS_11__wrap_iterIT_EERKNS5_IT0_EE, symObjAddr: 0x37FC, symBinAddr: 0x100007C28, symSize: 0x48 }
  - { offsetInCU: 0x4BBF, offset: 0x1F182, size: 0x8, addend: 0x0, symName: __ZNSt3__14moveB8ne180100IP4CardS2_EET0_T_S4_S3_, symObjAddr: 0x38BC, symBinAddr: 0x100007CE8, symSize: 0x40 }
  - { offsetInCU: 0x4C19, offset: 0x1F1DC, size: 0x8, addend: 0x0, symName: __ZNSt3__16__moveB8ne180100INS_17_ClassicAlgPolicyEP4CardS3_S3_EENS_4pairIT0_T2_EES5_T1_S6_, symObjAddr: 0x39DC, symBinAddr: 0x100007D28, symSize: 0x44 }
  - { offsetInCU: 0x4C85, offset: 0x1F248, size: 0x8, addend: 0x0, symName: __ZNSt3__123__dispatch_copy_or_moveB8ne180100INS_17_ClassicAlgPolicyENS_11__move_loopIS1_EENS_14__move_trivialEP4CardS6_S6_EENS_4pairIT2_T4_EES8_T3_S9_, symObjAddr: 0x3A20, symBinAddr: 0x100007D6C, symSize: 0x44 }
  - { offsetInCU: 0x4D03, offset: 0x1F2C6, size: 0x8, addend: 0x0, symName: __ZNSt3__121__unwrap_and_dispatchB8ne180100INS_10__overloadINS_11__move_loopINS_17_ClassicAlgPolicyEEENS_14__move_trivialEEEP4CardS8_S8_Li0EEENS_4pairIT0_T2_EESA_T1_SB_, symObjAddr: 0x3A64, symBinAddr: 0x100007DB0, symSize: 0xB4 }
  - { offsetInCU: 0x4D91, offset: 0x1F354, size: 0x8, addend: 0x0, symName: __ZNSt3__114__unwrap_rangeB8ne180100IP4CardS2_EENS_4pairIT0_S4_EET_S6_, symObjAddr: 0x3B18, symBinAddr: 0x100007E64, symSize: 0x60 }
  - { offsetInCU: 0x4F26, offset: 0x1F4E9, size: 0x8, addend: 0x0, symName: __ZNSt3__113__unwrap_iterB8ne180100IP4CardNS_18__unwrap_iter_implIS2_Lb1EEELi0EEEDTclsrT0_8__unwrapclsr3stdE7declvalIT_EEEES6_, symObjAddr: 0x3BC0, symBinAddr: 0x100007F0C, symSize: 0x24 }
  - { offsetInCU: 0x4F6A, offset: 0x1F52D, size: 0x8, addend: 0x0, symName: __ZNSt3__19make_pairB8ne180100IP4CardS2_EENS_4pairINS_18__unwrap_ref_decayIT_E4typeENS4_IT0_E4typeEEEOS5_OS8_, symObjAddr: 0x3BE4, symBinAddr: 0x100007F30, symSize: 0x38 }
  - { offsetInCU: 0x4FB9, offset: 0x1F57C, size: 0x8, addend: 0x0, symName: __ZNSt3__114__rewrap_rangeB8ne180100IP4CardS2_EET_S3_T0_, symObjAddr: 0x3C1C, symBinAddr: 0x100007F68, symSize: 0x2C }
  - { offsetInCU: 0x5005, offset: 0x1F5C8, size: 0x8, addend: 0x0, symName: __ZNSt3__113__rewrap_iterB8ne180100IP4CardS2_NS_18__unwrap_iter_implIS2_Lb1EEEEET_S5_T0_, symObjAddr: 0x3C48, symBinAddr: 0x100007F94, symSize: 0x3C }
  - { offsetInCU: 0x505A, offset: 0x1F61D, size: 0x8, addend: 0x0, symName: __ZNSt3__119__copy_trivial_implB8ne180100I4CardS1_EENS_4pairIPT_PT0_EES4_S4_S6_, symObjAddr: 0x3C84, symBinAddr: 0x100007FD0, symSize: 0x88 }
  - { offsetInCU: 0x50C2, offset: 0x1F685, size: 0x8, addend: 0x0, symName: __ZNSt3__119__constexpr_memmoveB8ne180100I4CardS1_Li0EEEPT_S3_PT0_NS_15__element_countE, symObjAddr: 0x3D0C, symBinAddr: 0x100008058, symSize: 0x68 }
  - { offsetInCU: 0x5130, offset: 0x1F6F3, size: 0x8, addend: 0x0, symName: __ZNSt3__19make_pairB8ne180100IRP4CardS2_EENS_4pairINS_18__unwrap_ref_decayIT_E4typeENS5_IT0_E4typeEEEOS6_OS9_, symObjAddr: 0x3D74, symBinAddr: 0x1000080C0, symSize: 0x38 }
  - { offsetInCU: 0x5586, offset: 0x1FB49, size: 0x8, addend: 0x0, symName: __ZNSt3__124uniform_int_distributionIlEclINS_23mersenne_twister_engineIjLm32ELm624ELm397ELm31ELj2567483615ELm11ELj4294967295ELm7ELj2636928640ELm15ELj4022730752ELm18ELj1812433253EEEEElRT_RKNS1_10param_typeE, symObjAddr: 0x2CC0, symBinAddr: 0x100007108, symSize: 0x174 }
  - { offsetInCU: 0x7441, offset: 0x21A04, size: 0x8, addend: 0x0, symName: __ZN4DeckC2EiP12SDL_Renderer, symObjAddr: 0x0, symBinAddr: 0x1000063D0, symSize: 0x2B8 }
  - { offsetInCU: 0x7551, offset: 0x21B14, size: 0x8, addend: 0x0, symName: __ZNKSt3__112basic_stringIcNS_11char_traitsIcEENS_9allocatorIcEEE5c_strB8ne180100Ev, symObjAddr: 0x368, symBinAddr: 0x1000066C8, symSize: 0x24 }
  - { offsetInCU: 0x7575, offset: 0x21B38, size: 0x8, addend: 0x0, symName: __ZNSt3__16vectorI4CardNS_9allocatorIS1_EEE9push_backB8ne180100ERKS1_, symObjAddr: 0x38C, symBinAddr: 0x1000066EC, symSize: 0x90 }
  - { offsetInCU: 0x75BF, offset: 0x21B82, size: 0x8, addend: 0x0, symName: __ZN4Deck11shuffleDeckEv, symObjAddr: 0x450, symBinAddr: 0x10000677C, symSize: 0xB4 }
  - { offsetInCU: 0x7600, offset: 0x21BC3, size: 0x8, addend: 0x0, symName: __ZN4DeckC1EiP12SDL_Renderer, symObjAddr: 0x530, symBinAddr: 0x100006830, symSize: 0x3C }
  - { offsetInCU: 0x765F, offset: 0x21C22, size: 0x8, addend: 0x0, symName: __ZNSt3__113random_deviceC1B8ne180100Ev, symObjAddr: 0x56C, symBinAddr: 0x10000686C, symSize: 0x74 }
  - { offsetInCU: 0x7687, offset: 0x21C4A, size: 0x8, addend: 0x0, symName: __ZNSt3__123mersenne_twister_engineIjLm32ELm624ELm397ELm31ELj2567483615ELm11ELj4294967295ELm7ELj2636928640ELm15ELj4022730752ELm18ELj1812433253EEC1B8ne180100Ej, symObjAddr: 0x5E0, symBinAddr: 0x1000068E0, symSize: 0x34 }
  - { offsetInCU: 0x76BD, offset: 0x21C80, size: 0x8, addend: 0x0, symName: __ZNSt3__16vectorI4CardNS_9allocatorIS1_EEE5beginB8ne180100Ev, symObjAddr: 0x65C, symBinAddr: 0x10000695C, symSize: 0x30 }
  - { offsetInCU: 0x76E3, offset: 0x21CA6, size: 0x8, addend: 0x0, symName: __ZNSt3__16vectorI4CardNS_9allocatorIS1_EEE3endB8ne180100Ev, symObjAddr: 0x68C, symBinAddr: 0x10000698C, symSize: 0x30 }
  - { offsetInCU: 0x770A, offset: 0x21CCD, size: 0x8, addend: 0x0, symName: __ZN4Deck8dealCardEb, symObjAddr: 0x6BC, symBinAddr: 0x1000069BC, symSize: 0x98 }
  - { offsetInCU: 0x774D, offset: 0x21D10, size: 0x8, addend: 0x0, symName: __ZNSt3__16vectorI4CardNS_9allocatorIS1_EEE5eraseB8ne180100ENS_11__wrap_iterIPKS1_EE, symObjAddr: 0x780, symBinAddr: 0x100006A54, symSize: 0x9C }
  - { offsetInCU: 0x77A5, offset: 0x21D68, size: 0x8, addend: 0x0, symName: __ZNSt3__111__wrap_iterIPK4CardEC1B8ne180100IPS1_Li0EEERKNS0_IT_EE, symObjAddr: 0x81C, symBinAddr: 0x100006AF0, symSize: 0x34 }
  - { offsetInCU: 0x77EB, offset: 0x21DAE, size: 0x8, addend: 0x0, symName: __ZN4Card11setFaceDownEb, symObjAddr: 0x850, symBinAddr: 0x100006B24, symSize: 0x2C }
  - { offsetInCU: 0x781C, offset: 0x21DDF, size: 0x8, addend: 0x0, symName: __ZNSt3__16vectorI4CardNS_9allocatorIS1_EEE22__construct_one_at_endB8ne180100IJRKS1_EEEvDpOT_, symObjAddr: 0x1378, symBinAddr: 0x100006B50, symSize: 0x90 }
  - { offsetInCU: 0x7869, offset: 0x21E2C, size: 0x8, addend: 0x0, symName: __ZNSt3__16vectorI4CardNS_9allocatorIS1_EEE21__push_back_slow_pathIRKS1_EEPS1_OT_, symObjAddr: 0x1408, symBinAddr: 0x100006BE0, symSize: 0xE8 }
  - { offsetInCU: 0x78DF, offset: 0x21EA2, size: 0x8, addend: 0x0, symName: __ZNSt3__116allocator_traitsINS_9allocatorI4CardEEE9constructB8ne180100IS2_JRKS2_EvEEvRS3_PT_DpOT0_, symObjAddr: 0x1564, symBinAddr: 0x100006CC8, symSize: 0x34 }
  - { offsetInCU: 0x7935, offset: 0x21EF8, size: 0x8, addend: 0x0, symName: __ZNSt3__19allocatorI4CardE9constructB8ne180100IS1_JRKS1_EEEvPT_DpOT0_, symObjAddr: 0x1610, symBinAddr: 0x100006CFC, symSize: 0x30 }
  - { offsetInCU: 0x7997, offset: 0x21F5A, size: 0x8, addend: 0x0, symName: __ZNSt3__123mersenne_twister_engineIjLm32ELm624ELm397ELm31ELj2567483615ELm11ELj4294967295ELm7ELj2636928640ELm15ELj4022730752ELm18ELj1812433253EEC2B8ne180100Ej, symObjAddr: 0x28E4, symBinAddr: 0x100006D2C, symSize: 0x34 }
  - { offsetInCU: 0x79CD, offset: 0x21F90, size: 0x8, addend: 0x0, symName: __ZNSt3__123mersenne_twister_engineIjLm32ELm624ELm397ELm31ELj2567483615ELm11ELj4294967295ELm7ELj2636928640ELm15ELj4022730752ELm18ELj1812433253EE4seedEj, symObjAddr: 0x2918, symBinAddr: 0x100006D60, symSize: 0xC4 }
  - { offsetInCU: 0x7A1F, offset: 0x21FE2, size: 0x8, addend: 0x0, symName: __ZNSt3__123mersenne_twister_engineIjLm32ELm624ELm397ELm31ELj2567483615ELm11ELj4294967295ELm7ELj2636928640ELm15ELj4022730752ELm18ELj1812433253EE8__rshiftB8ne180100ILm30ELi0EEEjj, symObjAddr: 0x29DC, symBinAddr: 0x100006E24, symSize: 0x18 }
  - { offsetInCU: 0x7A52, offset: 0x22015, size: 0x8, addend: 0x0, symName: __ZNSt3__16vectorI4CardNS_9allocatorIS1_EEE11__make_iterB8ne180100EPS1_, symObjAddr: 0x29F4, symBinAddr: 0x100006E3C, symSize: 0x30 }
  - { offsetInCU: 0x7A85, offset: 0x22048, size: 0x8, addend: 0x0, symName: __ZNSt3__111__wrap_iterIP4CardEC1B8ne180100ES2_, symObjAddr: 0x2A24, symBinAddr: 0x100006E6C, symSize: 0x34 }
  - { offsetInCU: 0x7ABC, offset: 0x2207F, size: 0x8, addend: 0x0, symName: __ZNSt3__111__wrap_iterIP4CardEC2B8ne180100ES2_, symObjAddr: 0x2A58, symBinAddr: 0x100006EA0, symSize: 0x20 }
  - { offsetInCU: 0x7AF2, offset: 0x220B5, size: 0x8, addend: 0x0, symName: __ZNSt3__18_IterOpsINS_17_ClassicAlgPolicyEE4nextB8ne180100INS_11__wrap_iterIP4CardEEEET_S8_S8_, symObjAddr: 0x2BB4, symBinAddr: 0x100006FFC, symSize: 0x20 }
  - { offsetInCU: 0x7B27, offset: 0x220EA, size: 0x8, addend: 0x0, symName: __ZNSt3__124uniform_int_distributionIlEC1B8ne180100Ev, symObjAddr: 0x2C1C, symBinAddr: 0x100007064, symSize: 0x3C }
  - { offsetInCU: 0x7B50, offset: 0x22113, size: 0x8, addend: 0x0, symName: __ZNSt3__111__wrap_iterIP4CardEmmB8ne180100Ev, symObjAddr: 0x2C58, symBinAddr: 0x1000070A0, symSize: 0x20 }
  - { offsetInCU: 0x7B73, offset: 0x22136, size: 0x8, addend: 0x0, symName: __ZNSt3__124uniform_int_distributionIlE10param_typeC1B8ne180100Ell, symObjAddr: 0x2E34, symBinAddr: 0x10000727C, symSize: 0x3C }
  - { offsetInCU: 0x7BBD, offset: 0x22180, size: 0x8, addend: 0x0, symName: __ZNSt3__18_IterOpsINS_17_ClassicAlgPolicyEE9iter_swapB8ne180100IRNS_11__wrap_iterIP4CardEES7_EEvOT_OT0_, symObjAddr: 0x2E70, symBinAddr: 0x1000072B8, symSize: 0x44 }
  - { offsetInCU: 0x7BFE, offset: 0x221C1, size: 0x8, addend: 0x0, symName: __ZNKSt3__111__wrap_iterIP4CardEplB8ne180100El, symObjAddr: 0x2EB4, symBinAddr: 0x1000072FC, symSize: 0x3C }
  - { offsetInCU: 0x7C3F, offset: 0x22202, size: 0x8, addend: 0x0, symName: __ZNSt3__111__wrap_iterIP4CardEppB8ne180100Ev, symObjAddr: 0x2EF0, symBinAddr: 0x100007338, symSize: 0x20 }
  - { offsetInCU: 0x7C63, offset: 0x22226, size: 0x8, addend: 0x0, symName: __ZNKSt3__111__wrap_iterIP4CardE4baseB8ne180100Ev, symObjAddr: 0x2F10, symBinAddr: 0x100007358, symSize: 0x18 }
  - { offsetInCU: 0x7C86, offset: 0x22249, size: 0x8, addend: 0x0, symName: __ZNSt3__124uniform_int_distributionIlEC1B8ne180100Ell, symObjAddr: 0x2F28, symBinAddr: 0x100007370, symSize: 0x3C }
  - { offsetInCU: 0x7CCA, offset: 0x2228D, size: 0x8, addend: 0x0, symName: __ZNSt3__124uniform_int_distributionIlEC2B8ne180100Ell, symObjAddr: 0x2F64, symBinAddr: 0x1000073AC, symSize: 0x3C }
  - { offsetInCU: 0x7D0F, offset: 0x222D2, size: 0x8, addend: 0x0, symName: __ZNKSt3__124uniform_int_distributionIlE10param_type1bB8ne180100Ev, symObjAddr: 0x2FA0, symBinAddr: 0x1000073E8, symSize: 0x18 }
  - { offsetInCU: 0x7D33, offset: 0x222F6, size: 0x8, addend: 0x0, symName: __ZNKSt3__124uniform_int_distributionIlE10param_type1aB8ne180100Ev, symObjAddr: 0x2FB8, symBinAddr: 0x100007400, symSize: 0x18 }
  - { offsetInCU: 0x7D57, offset: 0x2231A, size: 0x8, addend: 0x0, symName: __ZNSt3__125__independent_bits_engineINS_23mersenne_twister_engineIjLm32ELm624ELm397ELm31ELj2567483615ELm11ELj4294967295ELm7ELj2636928640ELm15ELj4022730752ELm18ELj1812433253EEEmEC1ERS2_m, symObjAddr: 0x2FD0, symBinAddr: 0x100007418, symSize: 0x3C }
  - { offsetInCU: 0x7D9C, offset: 0x2235F, size: 0x8, addend: 0x0, symName: __ZNSt3__125__independent_bits_engineINS_23mersenne_twister_engineIjLm32ELm624ELm397ELm31ELj2567483615ELm11ELj4294967295ELm7ELj2636928640ELm15ELj4022730752ELm18ELj1812433253EEEmEclB8ne180100Ev, symObjAddr: 0x300C, symBinAddr: 0x100007454, symSize: 0x24 }
  - { offsetInCU: 0x7DC1, offset: 0x22384, size: 0x8, addend: 0x0, symName: __ZNSt3__125__independent_bits_engineINS_23mersenne_twister_engineIjLm32ELm624ELm397ELm31ELj2567483615ELm11ELj4294967295ELm7ELj2636928640ELm15ELj4022730752ELm18ELj1812433253EEEmEC2ERS2_m, symObjAddr: 0x3098, symBinAddr: 0x1000074CC, symSize: 0x264 }
  - { offsetInCU: 0x7E06, offset: 0x223C9, size: 0x8, addend: 0x0, symName: __ZNSt3__125__independent_bits_engineINS_23mersenne_twister_engineIjLm32ELm624ELm397ELm31ELj2567483615ELm11ELj4294967295ELm7ELj2636928640ELm15ELj4022730752ELm18ELj1812433253EEEmE6__evalENS_17integral_constantIbLb1EEE, symObjAddr: 0x32FC, symBinAddr: 0x100007730, symSize: 0x1F0 }
  - { offsetInCU: 0x7EC2, offset: 0x22485, size: 0x8, addend: 0x0, symName: __ZNSt3__123mersenne_twister_engineIjLm32ELm624ELm397ELm31ELj2567483615ELm11ELj4294967295ELm7ELj2636928640ELm15ELj4022730752ELm18ELj1812433253EEclEv, symObjAddr: 0x34EC, symBinAddr: 0x100007920, symSize: 0x14C }
  - { offsetInCU: 0x7F34, offset: 0x224F7, size: 0x8, addend: 0x0, symName: __ZNSt3__123mersenne_twister_engineIjLm32ELm624ELm397ELm31ELj2567483615ELm11ELj4294967295ELm7ELj2636928640ELm15ELj4022730752ELm18ELj1812433253EE3minB8ne180100Ev, symObjAddr: 0x3638, symBinAddr: 0x100007A6C, symSize: 0x8 }
  - { offsetInCU: 0x7F48, offset: 0x2250B, size: 0x8, addend: 0x0, symName: __ZNSt3__123mersenne_twister_engineIjLm32ELm624ELm397ELm31ELj2567483615ELm11ELj4294967295ELm7ELj2636928640ELm15ELj4022730752ELm18ELj1812433253EE8__rshiftB8ne180100ILm1ELi0EEEjj, symObjAddr: 0x3640, symBinAddr: 0x100007A74, symSize: 0x18 }
  - { offsetInCU: 0x7F7C, offset: 0x2253F, size: 0x8, addend: 0x0, symName: __ZNSt3__123mersenne_twister_engineIjLm32ELm624ELm397ELm31ELj2567483615ELm11ELj4294967295ELm7ELj2636928640ELm15ELj4022730752ELm18ELj1812433253EE8__rshiftB8ne180100ILm11ELi0EEEjj, symObjAddr: 0x3658, symBinAddr: 0x100007A8C, symSize: 0x18 }
  - { offsetInCU: 0x7FB0, offset: 0x22573, size: 0x8, addend: 0x0, symName: __ZNSt3__123mersenne_twister_engineIjLm32ELm624ELm397ELm31ELj2567483615ELm11ELj4294967295ELm7ELj2636928640ELm15ELj4022730752ELm18ELj1812433253EE8__lshiftB8ne180100ILm7ELi0EEEjj, symObjAddr: 0x3670, symBinAddr: 0x100007AA4, symSize: 0x1C }
  - { offsetInCU: 0x7FE4, offset: 0x225A7, size: 0x8, addend: 0x0, symName: __ZNSt3__123mersenne_twister_engineIjLm32ELm624ELm397ELm31ELj2567483615ELm11ELj4294967295ELm7ELj2636928640ELm15ELj4022730752ELm18ELj1812433253EE8__lshiftB8ne180100ILm15ELi0EEEjj, symObjAddr: 0x368C, symBinAddr: 0x100007AC0, symSize: 0x1C }
  - { offsetInCU: 0x8018, offset: 0x225DB, size: 0x8, addend: 0x0, symName: __ZNSt3__123mersenne_twister_engineIjLm32ELm624ELm397ELm31ELj2567483615ELm11ELj4294967295ELm7ELj2636928640ELm15ELj4022730752ELm18ELj1812433253EE8__rshiftB8ne180100ILm18ELi0EEEjj, symObjAddr: 0x36A8, symBinAddr: 0x100007ADC, symSize: 0x18 }
  - { offsetInCU: 0x804C, offset: 0x2260F, size: 0x8, addend: 0x0, symName: __ZNSt3__124uniform_int_distributionIlE10param_typeC2B8ne180100Ell, symObjAddr: 0x36E4, symBinAddr: 0x100007B10, symSize: 0x2C }
  - { offsetInCU: 0x8090, offset: 0x22653, size: 0x8, addend: 0x0, symName: __ZNKSt3__111__wrap_iterIP4CardEdeB8ne180100Ev, symObjAddr: 0x37B4, symBinAddr: 0x100007BE0, symSize: 0x18 }
  - { offsetInCU: 0x80B4, offset: 0x22677, size: 0x8, addend: 0x0, symName: __ZNSt3__111__wrap_iterIP4CardEpLB8ne180100El, symObjAddr: 0x37CC, symBinAddr: 0x100007BF8, symSize: 0x30 }
  - { offsetInCU: 0x80E5, offset: 0x226A8, size: 0x8, addend: 0x0, symName: __ZNKSt3__16vectorI4CardNS_9allocatorIS1_EEE6cbeginB8ne180100Ev, symObjAddr: 0x3844, symBinAddr: 0x100007C70, symSize: 0x2C }
  - { offsetInCU: 0x8109, offset: 0x226CC, size: 0x8, addend: 0x0, symName: __ZNSt3__16vectorI4CardNS_9allocatorIS1_EEE17__destruct_at_endB8ne180100EPS1_, symObjAddr: 0x3870, symBinAddr: 0x100007C9C, symSize: 0x4C }
  - { offsetInCU: 0x816E, offset: 0x22731, size: 0x8, addend: 0x0, symName: __ZNKSt3__114__move_trivialclB8ne180100I4CardS2_Li0EEENS_4pairIPT_PT0_EES5_S5_S7_, symObjAddr: 0x3B78, symBinAddr: 0x100007EC4, symSize: 0x48 }
  - { offsetInCU: 0x81D9, offset: 0x2279C, size: 0x8, addend: 0x0, symName: __ZNSt3__14pairIP4CardS2_EC1B8ne180100IRS2_S2_Li0EEEOT_OT0_, symObjAddr: 0x3DAC, symBinAddr: 0x1000080F8, symSize: 0x3C }
  - { offsetInCU: 0x8236, offset: 0x227F9, size: 0x8, addend: 0x0, symName: __ZNSt3__14pairIP4CardS2_EC2B8ne180100IRS2_S2_Li0EEEOT_OT0_, symObjAddr: 0x3DE8, symBinAddr: 0x100008134, symSize: 0x34 }
  - { offsetInCU: 0x8292, offset: 0x22855, size: 0x8, addend: 0x0, symName: __ZNSt3__118__unwrap_iter_implIP4CardLb1EE8__unwrapB8ne180100ES2_, symObjAddr: 0x3E1C, symBinAddr: 0x100008168, symSize: 0x24 }
  - { offsetInCU: 0x82B3, offset: 0x22876, size: 0x8, addend: 0x0, symName: __ZNSt3__14pairIP4CardS2_EC1B8ne180100IS2_S2_Li0EEEOT_OT0_, symObjAddr: 0x3E40, symBinAddr: 0x10000818C, symSize: 0x3C }
  - { offsetInCU: 0x8310, offset: 0x228D3, size: 0x8, addend: 0x0, symName: __ZNSt3__14pairIP4CardS2_EC2B8ne180100IS2_S2_Li0EEEOT_OT0_, symObjAddr: 0x3E7C, symBinAddr: 0x1000081C8, symSize: 0x34 }
  - { offsetInCU: 0x836C, offset: 0x2292F, size: 0x8, addend: 0x0, symName: __ZNSt3__118__unwrap_iter_implIP4CardLb1EE8__rewrapB8ne180100ES2_S2_, symObjAddr: 0x3EB0, symBinAddr: 0x1000081FC, symSize: 0x58 }
  - { offsetInCU: 0x839B, offset: 0x2295E, size: 0x8, addend: 0x0, symName: __ZNSt3__111__wrap_iterIPK4CardEC2B8ne180100IPS1_Li0EEERKNS0_IT_EE, symObjAddr: 0x3F08, symBinAddr: 0x100008254, symSize: 0x3C }
  - { offsetInCU: 0x491D, offset: 0x27562, size: 0x8, addend: 0x0, symName: __ZN8GameTextC2EiiNSt3__112basic_stringIcNS0_11char_traitsIcEENS0_9allocatorIcEEEE9SDL_ColorP12SDL_Renderer, symObjAddr: 0x0, symBinAddr: 0x100008290, symSize: 0x23C }
  - { offsetInCU: 0x49B2, offset: 0x275F7, size: 0x8, addend: 0x0, symName: __ZN8GameTextC1EiiNSt3__112basic_stringIcNS0_11char_traitsIcEENS0_9allocatorIcEEEE9SDL_ColorP12SDL_Renderer, symObjAddr: 0x32C, symBinAddr: 0x1000084CC, symSize: 0x64 }
  - { offsetInCU: 0x4A23, offset: 0x27668, size: 0x8, addend: 0x0, symName: __ZN8GameTextD2Ev, symObjAddr: 0x390, symBinAddr: 0x100008530, symSize: 0x68 }
  - { offsetInCU: 0x4A4D, offset: 0x27692, size: 0x8, addend: 0x0, symName: __ZN8GameTextD1Ev, symObjAddr: 0x404, symBinAddr: 0x100008598, symSize: 0x2C }
  - { offsetInCU: 0x4A77, offset: 0x276BC, size: 0x8, addend: 0x0, symName: __ZN8GameText6renderEP12SDL_Renderer, symObjAddr: 0x430, symBinAddr: 0x1000085C4, symSize: 0xD8 }
  - { offsetInCU: 0x4AAB, offset: 0x276F0, size: 0x8, addend: 0x0, symName: __ZNKSt3__112basic_stringIcNS_11char_traitsIcEENS_9allocatorIcEEE5emptyB8ne180100Ev, symObjAddr: 0x508, symBinAddr: 0x10000869C, symSize: 0x30 }
  - { offsetInCU: 0x4ACF, offset: 0x27714, size: 0x8, addend: 0x0, symName: __ZN8GameText15generateTextureEP12SDL_Renderer, symObjAddr: 0x538, symBinAddr: 0x1000086CC, symSize: 0x15C }
  - { offsetInCU: 0x4B1F, offset: 0x27764, size: 0x8, addend: 0x0, symName: __ZN8GameText11setPositionEii, symObjAddr: 0x694, symBinAddr: 0x100008828, symSize: 0x2C }
  - { offsetInCU: 0x4B61, offset: 0x277A6, size: 0x8, addend: 0x0, symName: __ZN8GameText7setTextENSt3__112basic_stringIcNS0_11char_traitsIcEENS0_9allocatorIcEEEEP12SDL_Renderer, symObjAddr: 0x6C0, symBinAddr: 0x100008854, symSize: 0x44 }
  - { offsetInCU: 0x4BA4, offset: 0x277E9, size: 0x8, addend: 0x0, symName: __ZNK8GameText7getTextEv, symObjAddr: 0x704, symBinAddr: 0x100008898, symSize: 0x3C }
  - { offsetInCU: 0x4BCA, offset: 0x2780F, size: 0x8, addend: 0x0, symName: __ZNK8GameText7getRectEv, symObjAddr: 0x740, symBinAddr: 0x1000088D4, symSize: 0x24 }
  - { offsetInCU: 0x52, offset: 0x2795A, size: 0x8, addend: 0x0, symName: _font, symObjAddr: 0x71BE8, symBinAddr: 0x100018020, symSize: 0x0 }
  - { offsetInCU: 0xAF, offset: 0x279B7, size: 0x8, addend: 0x0, symName: __ZNSt3__1L19piecewise_constructE, symObjAddr: 0xB662, symBinAddr: 0x1000133A1, symSize: 0x0 }
  - { offsetInCU: 0x4401, offset: 0x2BD09, size: 0x8, addend: 0x0, symName: '__ZNSt3__110__function10__not_nullB8ne180100IZ4mainE3$_0EEbRKT_', symObjAddr: 0x2E50, symBinAddr: 0x10000A528, symSize: 0x18 }
  - { offsetInCU: 0x4433, offset: 0x2BD3B, size: 0x8, addend: 0x0, symName: '__ZNSt3__110__function10__not_nullB8ne180100IZ4mainE3$_1EEbRKT_', symObjAddr: 0x60EC, symBinAddr: 0x10000D4FC, symSize: 0x18 }
  - { offsetInCU: 0x4465, offset: 0x2BD6D, size: 0x8, addend: 0x0, symName: '__ZNSt3__110__function10__not_nullB8ne180100IZ4mainE3$_2EEbRKT_', symObjAddr: 0x7CF4, symBinAddr: 0x10000F104, symSize: 0x18 }
  - { offsetInCU: 0xB2EE, offset: 0x32BF6, size: 0x8, addend: 0x0, symName: __ZNSt3__1neB8ne180100IP6ButtonEEbRKNS_11__wrap_iterIT_EES7_, symObjAddr: 0xE68, symBinAddr: 0x100009660, symSize: 0x34 }
  - { offsetInCU: 0xB331, offset: 0x32C39, size: 0x8, addend: 0x0, symName: __ZNSt3__1neB8ne180100IP8GameTextEEbRKNS_11__wrap_iterIT_EES7_, symObjAddr: 0xF34, symBinAddr: 0x10000972C, symSize: 0x34 }
  - { offsetInCU: 0xB374, offset: 0x32C7C, size: 0x8, addend: 0x0, symName: __ZNSt3__1eqB8ne180100IP6ButtonEEbRKNS_11__wrap_iterIT_EES7_, symObjAddr: 0x1024, symBinAddr: 0x10000981C, symSize: 0x48 }
  - { offsetInCU: 0xB3B7, offset: 0x32CBF, size: 0x8, addend: 0x0, symName: __ZNSt3__1eqB8ne180100IP8GameTextEEbRKNS_11__wrap_iterIT_EES7_, symObjAddr: 0x1084, symBinAddr: 0x10000987C, symSize: 0x48 }
  - { offsetInCU: 0xB3FA, offset: 0x32D02, size: 0x8, addend: 0x0, symName: __ZNSt3__112__to_addressB8ne180100I6ButtonEEPT_S3_, symObjAddr: 0x24E0, symBinAddr: 0x100009D24, symSize: 0x14 }
  - { offsetInCU: 0xB59D, offset: 0x32EA5, size: 0x8, addend: 0x0, symName: '__ZNSt3__116forward_as_tupleB8ne180100IJZ4mainE3$_0EEENS_5tupleIJDpOT_EEES5_', symObjAddr: 0x33C8, symBinAddr: 0x10000AAA0, symSize: 0x2C }
  - { offsetInCU: 0xB5D7, offset: 0x32EDF, size: 0x8, addend: 0x0, symName: '__ZNSt3__116forward_as_tupleB8ne180100IJNS_9allocatorIZ4mainE3$_0EEEEENS_5tupleIJDpOT_EEES7_', symObjAddr: 0x33F4, symBinAddr: 0x10000AACC, symSize: 0x2C }
  - { offsetInCU: 0xB656, offset: 0x32F5E, size: 0x8, addend: 0x0, symName: '__ZNSt3__13getB8ne180100ILm0EJOZ4mainE3$_0EEERNS_13tuple_elementIXT_ENS_5tupleIJDpT0_EEEE4typeERS7_', symObjAddr: 0x370C, symBinAddr: 0x10000ADE4, symSize: 0x24 }
  - { offsetInCU: 0xB699, offset: 0x32FA1, size: 0x8, addend: 0x0, symName: '__ZNSt3__13getB8ne180100ILm0EJONS_9allocatorIZ4mainE3$_0EEEEERNS_13tuple_elementIXT_ENS_5tupleIJDpT0_EEEE4typeERS9_', symObjAddr: 0x3748, symBinAddr: 0x10000AE20, symSize: 0x24 }
  - { offsetInCU: 0xBBDD, offset: 0x334E5, size: 0x8, addend: 0x0, symName: '__ZNSt3__116forward_as_tupleB8ne180100IJRKZ4mainE3$_0EEENS_5tupleIJDpOT_EEES7_', symObjAddr: 0x3D5C, symBinAddr: 0x10000B3B4, symSize: 0x2C }
  - { offsetInCU: 0xBC2C, offset: 0x33534, size: 0x8, addend: 0x0, symName: '__ZNSt3__13getB8ne180100ILm0EJRKZ4mainE3$_0EEERNS_13tuple_elementIXT_ENS_5tupleIJDpT0_EEEE4typeERS8_', symObjAddr: 0x3F4C, symBinAddr: 0x10000B5A4, symSize: 0x24 }
  - { offsetInCU: 0xBC6F, offset: 0x33577, size: 0x8, addend: 0x0, symName: '__ZNSt3__116forward_as_tupleB8ne180100IJRKNS_9allocatorIZ4mainE3$_0EEEEENS_5tupleIJDpOT_EEES9_', symObjAddr: 0x42A8, symBinAddr: 0x10000B900, symSize: 0x2C }
  - { offsetInCU: 0xBCBE, offset: 0x335C6, size: 0x8, addend: 0x0, symName: '__ZNSt3__13getB8ne180100ILm0EJRKNS_9allocatorIZ4mainE3$_0EEEEERNS_13tuple_elementIXT_ENS_5tupleIJDpT0_EEEE4typeERSA_', symObjAddr: 0x448C, symBinAddr: 0x10000BAE4, symSize: 0x24 }
  - { offsetInCU: 0xBD72, offset: 0x3367A, size: 0x8, addend: 0x0, symName: '__ZNSt3__18__invokeB8ne180100IRZ4mainE3$_0JEEEDTclclsr3stdE7declvalIT_EEspclsr3stdE7declvalIT0_EEEEOS3_DpOS4_', symObjAddr: 0x4548, symBinAddr: 0x10000BBA0, symSize: 0x24 }
  - { offsetInCU: 0xBDAA, offset: 0x336B2, size: 0x8, addend: 0x0, symName: __ZNSt3__119__allocate_at_leastB8ne180100INS_9allocatorI6ButtonEEEENS_19__allocation_resultINS_16allocator_traitsIT_E7pointerEEERS6_m, symObjAddr: 0x4D78, symBinAddr: 0x10000C19C, symSize: 0x40 }
  - { offsetInCU: 0xBDED, offset: 0x336F5, size: 0x8, addend: 0x0, symName: __ZNSt3__142__uninitialized_allocator_move_if_noexceptB8ne180100INS_9allocatorI6ButtonEENS_16reverse_iteratorIPS2_EES6_S6_EET2_RT_T0_T1_S7_, symObjAddr: 0x4F2C, symBinAddr: 0x10000C350, symSize: 0x12C }
  - { offsetInCU: 0xBE8D, offset: 0x33795, size: 0x8, addend: 0x0, symName: __ZNSt3__14swapB8ne180100IP6ButtonEENS_9enable_ifIXaasr21is_move_constructibleIT_EE5valuesr18is_move_assignableIS4_EE5valueEvE4typeERS4_S7_, symObjAddr: 0x50A4, symBinAddr: 0x10000C4C8, symSize: 0x3C }
  - { offsetInCU: 0xBEDE, offset: 0x337E6, size: 0x8, addend: 0x0, symName: __ZNSt3__122__make_exception_guardB8ne180100INS_29_AllocatorDestroyRangeReverseINS_9allocatorI6ButtonEENS_16reverse_iteratorIPS3_EEEEEENS_28__exception_guard_exceptionsIT_EESA_, symObjAddr: 0x50F4, symBinAddr: 0x10000C518, symSize: 0x4C }
  - { offsetInCU: 0xBF14, offset: 0x3381C, size: 0x8, addend: 0x0, symName: __ZNSt3__1neB8ne180100IP6ButtonS2_EEbRKNS_16reverse_iteratorIT_EERKNS3_IT0_EE, symObjAddr: 0x5184, symBinAddr: 0x10000C5A8, symSize: 0x48 }
  - { offsetInCU: 0xBF60, offset: 0x33868, size: 0x8, addend: 0x0, symName: __ZNSt3__112__to_addressB8ne180100INS_16reverse_iteratorIP6ButtonEEvEEu7__decayIDTclsr19__to_address_helperIT_EE6__callclsr3stdE7declvalIRKS5_EEEEES7_, symObjAddr: 0x5200, symBinAddr: 0x10000C624, symSize: 0x24 }
  - { offsetInCU: 0xBFC1, offset: 0x338C9, size: 0x8, addend: 0x0, symName: __ZNSt3__119__allocator_destroyB8ne180100INS_9allocatorI6ButtonEENS_16reverse_iteratorINS4_IPS2_EEEES7_EEvRT_T0_T1_, symObjAddr: 0x56F0, symBinAddr: 0x10000CB00, symSize: 0x70 }
  - { offsetInCU: 0xC025, offset: 0x3392D, size: 0x8, addend: 0x0, symName: __ZNSt3__1neB8ne180100INS_16reverse_iteratorIP6ButtonEES4_EEbRKNS1_IT_EERKNS1_IT0_EE, symObjAddr: 0x579C, symBinAddr: 0x10000CBAC, symSize: 0x60 }
  - { offsetInCU: 0xC071, offset: 0x33979, size: 0x8, addend: 0x0, symName: __ZNSt3__112__to_addressB8ne180100INS_16reverse_iteratorINS1_IP6ButtonEEEEvEEu7__decayIDTclsr19__to_address_helperIT_EE6__callclsr3stdE7declvalIRKS6_EEEEES8_, symObjAddr: 0x57FC, symBinAddr: 0x10000CC0C, symSize: 0x24 }
  - { offsetInCU: 0xC23F, offset: 0x33B47, size: 0x8, addend: 0x0, symName: '__ZNSt3__116forward_as_tupleB8ne180100IJZ4mainE3$_1EEENS_5tupleIJDpOT_EEES5_', symObjAddr: 0x660C, symBinAddr: 0x10000DA1C, symSize: 0x2C }
  - { offsetInCU: 0xC279, offset: 0x33B81, size: 0x8, addend: 0x0, symName: '__ZNSt3__116forward_as_tupleB8ne180100IJNS_9allocatorIZ4mainE3$_1EEEEENS_5tupleIJDpOT_EEES7_', symObjAddr: 0x6638, symBinAddr: 0x10000DA48, symSize: 0x2C }
  - { offsetInCU: 0xC2DD, offset: 0x33BE5, size: 0x8, addend: 0x0, symName: '__ZNSt3__13getB8ne180100ILm0EJOZ4mainE3$_1EEERNS_13tuple_elementIXT_ENS_5tupleIJDpT0_EEEE4typeERS7_', symObjAddr: 0x6950, symBinAddr: 0x10000DD60, symSize: 0x24 }
  - { offsetInCU: 0xC320, offset: 0x33C28, size: 0x8, addend: 0x0, symName: '__ZNSt3__13getB8ne180100ILm0EJONS_9allocatorIZ4mainE3$_1EEEEERNS_13tuple_elementIXT_ENS_5tupleIJDpT0_EEEE4typeERS9_', symObjAddr: 0x698C, symBinAddr: 0x10000DD9C, symSize: 0x24 }
  - { offsetInCU: 0xC864, offset: 0x3416C, size: 0x8, addend: 0x0, symName: '__ZNSt3__116forward_as_tupleB8ne180100IJRKZ4mainE3$_1EEENS_5tupleIJDpOT_EEES7_', symObjAddr: 0x6F20, symBinAddr: 0x10000E330, symSize: 0x2C }
  - { offsetInCU: 0xC8B3, offset: 0x341BB, size: 0x8, addend: 0x0, symName: '__ZNSt3__13getB8ne180100ILm0EJRKZ4mainE3$_1EEERNS_13tuple_elementIXT_ENS_5tupleIJDpT0_EEEE4typeERS8_', symObjAddr: 0x7110, symBinAddr: 0x10000E520, symSize: 0x24 }
  - { offsetInCU: 0xC8F6, offset: 0x341FE, size: 0x8, addend: 0x0, symName: '__ZNSt3__116forward_as_tupleB8ne180100IJRKNS_9allocatorIZ4mainE3$_1EEEEENS_5tupleIJDpOT_EEES9_', symObjAddr: 0x746C, symBinAddr: 0x10000E87C, symSize: 0x2C }
  - { offsetInCU: 0xC945, offset: 0x3424D, size: 0x8, addend: 0x0, symName: '__ZNSt3__13getB8ne180100ILm0EJRKNS_9allocatorIZ4mainE3$_1EEEEERNS_13tuple_elementIXT_ENS_5tupleIJDpT0_EEEE4typeERSA_', symObjAddr: 0x7650, symBinAddr: 0x10000EA60, symSize: 0x24 }
  - { offsetInCU: 0xC988, offset: 0x34290, size: 0x8, addend: 0x0, symName: '__ZNSt3__18__invokeB8ne180100IRZ4mainE3$_1JEEEDTclclsr3stdE7declvalIT_EEspclsr3stdE7declvalIT0_EEEEOS3_DpOS4_', symObjAddr: 0x770C, symBinAddr: 0x10000EB1C, symSize: 0x24 }
  - { offsetInCU: 0xCB2E, offset: 0x34436, size: 0x8, addend: 0x0, symName: '__ZNSt3__116forward_as_tupleB8ne180100IJZ4mainE3$_2EEENS_5tupleIJDpOT_EEES5_', symObjAddr: 0x8214, symBinAddr: 0x10000F624, symSize: 0x2C }
  - { offsetInCU: 0xCB68, offset: 0x34470, size: 0x8, addend: 0x0, symName: '__ZNSt3__116forward_as_tupleB8ne180100IJNS_9allocatorIZ4mainE3$_2EEEEENS_5tupleIJDpOT_EEES7_', symObjAddr: 0x8240, symBinAddr: 0x10000F650, symSize: 0x2C }
  - { offsetInCU: 0xCBCC, offset: 0x344D4, size: 0x8, addend: 0x0, symName: '__ZNSt3__13getB8ne180100ILm0EJOZ4mainE3$_2EEERNS_13tuple_elementIXT_ENS_5tupleIJDpT0_EEEE4typeERS7_', symObjAddr: 0x8558, symBinAddr: 0x10000F968, symSize: 0x24 }
  - { offsetInCU: 0xCC0F, offset: 0x34517, size: 0x8, addend: 0x0, symName: '__ZNSt3__13getB8ne180100ILm0EJONS_9allocatorIZ4mainE3$_2EEEEERNS_13tuple_elementIXT_ENS_5tupleIJDpT0_EEEE4typeERS9_', symObjAddr: 0x8594, symBinAddr: 0x10000F9A4, symSize: 0x24 }
  - { offsetInCU: 0xD153, offset: 0x34A5B, size: 0x8, addend: 0x0, symName: '__ZNSt3__116forward_as_tupleB8ne180100IJRKZ4mainE3$_2EEENS_5tupleIJDpOT_EEES7_', symObjAddr: 0x8B28, symBinAddr: 0x10000FF38, symSize: 0x2C }
  - { offsetInCU: 0xD1A2, offset: 0x34AAA, size: 0x8, addend: 0x0, symName: '__ZNSt3__13getB8ne180100ILm0EJRKZ4mainE3$_2EEERNS_13tuple_elementIXT_ENS_5tupleIJDpT0_EEEE4typeERS8_', symObjAddr: 0x8D18, symBinAddr: 0x100010128, symSize: 0x24 }
  - { offsetInCU: 0xD1E5, offset: 0x34AED, size: 0x8, addend: 0x0, symName: '__ZNSt3__116forward_as_tupleB8ne180100IJRKNS_9allocatorIZ4mainE3$_2EEEEENS_5tupleIJDpOT_EEES9_', symObjAddr: 0x9074, symBinAddr: 0x100010484, symSize: 0x2C }
  - { offsetInCU: 0xD234, offset: 0x34B3C, size: 0x8, addend: 0x0, symName: '__ZNSt3__13getB8ne180100ILm0EJRKNS_9allocatorIZ4mainE3$_2EEEEERNS_13tuple_elementIXT_ENS_5tupleIJDpT0_EEEE4typeERSA_', symObjAddr: 0x9258, symBinAddr: 0x100010668, symSize: 0x24 }
  - { offsetInCU: 0xD277, offset: 0x34B7F, size: 0x8, addend: 0x0, symName: '__ZNSt3__18__invokeB8ne180100IRZ4mainE3$_2JEEEDTclclsr3stdE7declvalIT_EEspclsr3stdE7declvalIT0_EEEEOS3_DpOS4_', symObjAddr: 0x9314, symBinAddr: 0x100010724, symSize: 0x24 }
  - { offsetInCU: 0xD2AF, offset: 0x34BB7, size: 0x8, addend: 0x0, symName: __ZNSt3__112__to_addressB8ne180100I8GameTextEEPT_S3_, symObjAddr: 0x9778, symBinAddr: 0x100010B88, symSize: 0x14 }
  - { offsetInCU: 0xD2E4, offset: 0x34BEC, size: 0x8, addend: 0x0, symName: __ZNSt3__119__allocate_at_leastB8ne180100INS_9allocatorI8GameTextEEEENS_19__allocation_resultINS_16allocator_traitsIT_E7pointerEEERS6_m, symObjAddr: 0xA108, symBinAddr: 0x100011518, symSize: 0x40 }
  - { offsetInCU: 0xD327, offset: 0x34C2F, size: 0x8, addend: 0x0, symName: __ZNSt3__142__uninitialized_allocator_move_if_noexceptB8ne180100INS_9allocatorI8GameTextEENS_16reverse_iteratorIPS2_EES6_S6_EET2_RT_T0_T1_S7_, symObjAddr: 0xA2BC, symBinAddr: 0x1000116CC, symSize: 0x12C }
  - { offsetInCU: 0xD3C7, offset: 0x34CCF, size: 0x8, addend: 0x0, symName: __ZNSt3__14swapB8ne180100IP8GameTextEENS_9enable_ifIXaasr21is_move_constructibleIT_EE5valuesr18is_move_assignableIS4_EE5valueEvE4typeERS4_S7_, symObjAddr: 0xA434, symBinAddr: 0x100011844, symSize: 0x3C }
  - { offsetInCU: 0xD418, offset: 0x34D20, size: 0x8, addend: 0x0, symName: __ZNSt3__122__make_exception_guardB8ne180100INS_29_AllocatorDestroyRangeReverseINS_9allocatorI8GameTextEENS_16reverse_iteratorIPS3_EEEEEENS_28__exception_guard_exceptionsIT_EESA_, symObjAddr: 0xA484, symBinAddr: 0x100011894, symSize: 0x4C }
  - { offsetInCU: 0xD44E, offset: 0x34D56, size: 0x8, addend: 0x0, symName: __ZNSt3__1neB8ne180100IP8GameTextS2_EEbRKNS_16reverse_iteratorIT_EERKNS3_IT0_EE, symObjAddr: 0xA514, symBinAddr: 0x100011924, symSize: 0x48 }
  - { offsetInCU: 0xD49A, offset: 0x34DA2, size: 0x8, addend: 0x0, symName: __ZNSt3__112__to_addressB8ne180100INS_16reverse_iteratorIP8GameTextEEvEEu7__decayIDTclsr19__to_address_helperIT_EE6__callclsr3stdE7declvalIRKS5_EEEEES7_, symObjAddr: 0xA590, symBinAddr: 0x1000119A0, symSize: 0x24 }
  - { offsetInCU: 0xD4FB, offset: 0x34E03, size: 0x8, addend: 0x0, symName: __ZNSt3__119__allocator_destroyB8ne180100INS_9allocatorI8GameTextEENS_16reverse_iteratorINS4_IPS2_EEEES7_EEvRT_T0_T1_, symObjAddr: 0xA8F0, symBinAddr: 0x100011D00, symSize: 0x70 }
  - { offsetInCU: 0xD55F, offset: 0x34E67, size: 0x8, addend: 0x0, symName: __ZNSt3__1neB8ne180100INS_16reverse_iteratorIP8GameTextEES4_EEbRKNS1_IT_EERKNS1_IT0_EE, symObjAddr: 0xA99C, symBinAddr: 0x100011DAC, symSize: 0x60 }
  - { offsetInCU: 0xD5AB, offset: 0x34EB3, size: 0x8, addend: 0x0, symName: __ZNSt3__112__to_addressB8ne180100INS_16reverse_iteratorINS1_IP8GameTextEEEEvEEu7__decayIDTclsr19__to_address_helperIT_EE6__callclsr3stdE7declvalIRKS6_EEEEES8_, symObjAddr: 0xA9FC, symBinAddr: 0x100011E0C, symSize: 0x24 }
  - { offsetInCU: 0xE128, offset: 0x35A30, size: 0x8, addend: 0x0, symName: _main, symObjAddr: 0x0, symBinAddr: 0x1000088F8, symSize: 0x968 }
  - { offsetInCU: 0xE737, offset: 0x3603F, size: 0x8, addend: 0x0, symName: __ZNSt3__16vectorI6ButtonNS_9allocatorIS1_EEE26__swap_out_circular_bufferERNS_14__split_bufferIS1_RS3_EE, symObjAddr: 0x47E4, symBinAddr: 0x10000BE3C, symSize: 0x110 }
  - { offsetInCU: 0xED4A, offset: 0x36652, size: 0x8, addend: 0x0, symName: __ZNSt3__16vectorI8GameTextNS_9allocatorIS1_EEE26__swap_out_circular_bufferERNS_14__split_bufferIS1_RS3_EE, symObjAddr: 0x9DA8, symBinAddr: 0x1000111B8, symSize: 0x110 }
  - { offsetInCU: 0x10B26, offset: 0x3842E, size: 0x8, addend: 0x0, symName: __ZNSt3__16vectorI6ButtonNS_9allocatorIS1_EEEC1B8ne180100Ev, symObjAddr: 0xA34, symBinAddr: 0x100009260, symSize: 0x2C }
  - { offsetInCU: 0x10B5D, offset: 0x38465, size: 0x8, addend: 0x0, symName: '__ZNSt3__16vectorI6ButtonNS_9allocatorIS1_EEE12emplace_backIJRP8GameTextiiii9SDL_ColorZ4mainE3$_0EEEvDpOT_', symObjAddr: 0xA94, symBinAddr: 0x10000928C, symSize: 0xD8 }
  - { offsetInCU: 0x10C24, offset: 0x3852C, size: 0x8, addend: 0x0, symName: '__ZNSt3__16vectorI6ButtonNS_9allocatorIS1_EEE12emplace_backIJRP8GameTextiiii9SDL_ColorZ4mainE3$_1EEEvDpOT_', symObjAddr: 0xB6C, symBinAddr: 0x100009364, symSize: 0xD8 }
  - { offsetInCU: 0x10CEB, offset: 0x385F3, size: 0x8, addend: 0x0, symName: '__ZNSt3__16vectorI6ButtonNS_9allocatorIS1_EEE12emplace_backIJRP8GameTextiiii9SDL_ColorZ4mainE3$_2EEEvDpOT_', symObjAddr: 0xC44, symBinAddr: 0x10000943C, symSize: 0xD8 }
  - { offsetInCU: 0x10DB2, offset: 0x386BA, size: 0x8, addend: 0x0, symName: __ZNSt3__16vectorI8GameTextNS_9allocatorIS1_EEEC1B8ne180100Ev, symObjAddr: 0xD1C, symBinAddr: 0x100009514, symSize: 0x2C }
  - { offsetInCU: 0x10DFA, offset: 0x38702, size: 0x8, addend: 0x0, symName: __ZNSt3__16vectorI8GameTextNS_9allocatorIS1_EEE12emplace_backIJiiRA10_Kc9SDL_ColorRP12SDL_RendererEEEvDpOT_, symObjAddr: 0xD48, symBinAddr: 0x100009540, symSize: 0xC0 }
  - { offsetInCU: 0x10E99, offset: 0x387A1, size: 0x8, addend: 0x0, symName: __ZNSt3__16vectorI6ButtonNS_9allocatorIS1_EEE5beginB8ne180100Ev, symObjAddr: 0xE08, symBinAddr: 0x100009600, symSize: 0x30 }
  - { offsetInCU: 0x10EBF, offset: 0x387C7, size: 0x8, addend: 0x0, symName: __ZNSt3__16vectorI6ButtonNS_9allocatorIS1_EEE3endB8ne180100Ev, symObjAddr: 0xE38, symBinAddr: 0x100009630, symSize: 0x30 }
  - { offsetInCU: 0x10EE5, offset: 0x387ED, size: 0x8, addend: 0x0, symName: __ZNKSt3__111__wrap_iterIP6ButtonEdeB8ne180100Ev, symObjAddr: 0xE9C, symBinAddr: 0x100009694, symSize: 0x18 }
  - { offsetInCU: 0x10F09, offset: 0x38811, size: 0x8, addend: 0x0, symName: __ZNSt3__111__wrap_iterIP6ButtonEppB8ne180100Ev, symObjAddr: 0xEB4, symBinAddr: 0x1000096AC, symSize: 0x20 }
  - { offsetInCU: 0x10F2D, offset: 0x38835, size: 0x8, addend: 0x0, symName: __ZNSt3__16vectorI8GameTextNS_9allocatorIS1_EEE5beginB8ne180100Ev, symObjAddr: 0xED4, symBinAddr: 0x1000096CC, symSize: 0x30 }
  - { offsetInCU: 0x10F53, offset: 0x3885B, size: 0x8, addend: 0x0, symName: __ZNSt3__16vectorI8GameTextNS_9allocatorIS1_EEE3endB8ne180100Ev, symObjAddr: 0xF04, symBinAddr: 0x1000096FC, symSize: 0x30 }
  - { offsetInCU: 0x10F79, offset: 0x38881, size: 0x8, addend: 0x0, symName: __ZNKSt3__111__wrap_iterIP8GameTextEdeB8ne180100Ev, symObjAddr: 0xF68, symBinAddr: 0x100009760, symSize: 0x18 }
  - { offsetInCU: 0x10F9D, offset: 0x388A5, size: 0x8, addend: 0x0, symName: __ZNSt3__111__wrap_iterIP8GameTextEppB8ne180100Ev, symObjAddr: 0xF80, symBinAddr: 0x100009778, symSize: 0x20 }
  - { offsetInCU: 0x10FC1, offset: 0x388C9, size: 0x8, addend: 0x0, symName: __ZNSt3__16vectorI8GameTextNS_9allocatorIS1_EEED1B8ne180100Ev, symObjAddr: 0xFA0, symBinAddr: 0x100009798, symSize: 0x2C }
  - { offsetInCU: 0x10FE9, offset: 0x388F1, size: 0x8, addend: 0x0, symName: __ZNSt3__16vectorI6ButtonNS_9allocatorIS1_EEED1B8ne180100Ev, symObjAddr: 0xFCC, symBinAddr: 0x1000097C4, symSize: 0x2C }
  - { offsetInCU: 0x11011, offset: 0x38919, size: 0x8, addend: 0x0, symName: __ZN9BlackjackD1Ev, symObjAddr: 0xFF8, symBinAddr: 0x1000097F0, symSize: 0x2C }
  - { offsetInCU: 0x1103B, offset: 0x38943, size: 0x8, addend: 0x0, symName: __ZNKSt3__111__wrap_iterIP6ButtonE4baseB8ne180100Ev, symObjAddr: 0x106C, symBinAddr: 0x100009864, symSize: 0x18 }
  - { offsetInCU: 0x1105F, offset: 0x38967, size: 0x8, addend: 0x0, symName: __ZNKSt3__111__wrap_iterIP8GameTextE4baseB8ne180100Ev, symObjAddr: 0x10CC, symBinAddr: 0x1000098C4, symSize: 0x18 }
  - { offsetInCU: 0x11083, offset: 0x3898B, size: 0x8, addend: 0x0, symName: __ZN9BlackjackD2Ev, symObjAddr: 0x10E4, symBinAddr: 0x1000098DC, symSize: 0x44 }
  - { offsetInCU: 0x110B2, offset: 0x389BA, size: 0x8, addend: 0x0, symName: __ZNSt3__16vectorI6ButtonNS_9allocatorIS1_EEEC2B8ne180100Ev, symObjAddr: 0x20DC, symBinAddr: 0x100009920, symSize: 0x4C }
  - { offsetInCU: 0x110DF, offset: 0x389E7, size: 0x8, addend: 0x0, symName: __ZNSt3__117__compressed_pairIP6ButtonNS_9allocatorIS1_EEEC1B8ne180100IDnNS_18__default_init_tagEEEOT_OT0_, symObjAddr: 0x2128, symBinAddr: 0x10000996C, symSize: 0x3C }
  - { offsetInCU: 0x11135, offset: 0x38A3D, size: 0x8, addend: 0x0, symName: __ZNSt3__117__compressed_pairIP6ButtonNS_9allocatorIS1_EEEC2B8ne180100IDnNS_18__default_init_tagEEEOT_OT0_, symObjAddr: 0x2164, symBinAddr: 0x1000099A8, symSize: 0x40 }
  - { offsetInCU: 0x1118B, offset: 0x38A93, size: 0x8, addend: 0x0, symName: __ZNSt3__122__compressed_pair_elemIP6ButtonLi0ELb0EEC2B8ne180100IDnvEEOT_, symObjAddr: 0x21A4, symBinAddr: 0x1000099E8, symSize: 0x1C }
  - { offsetInCU: 0x111CB, offset: 0x38AD3, size: 0x8, addend: 0x0, symName: __ZNSt3__122__compressed_pair_elemINS_9allocatorI6ButtonEELi1ELb1EEC2B8ne180100ENS_18__default_init_tagE, symObjAddr: 0x21C0, symBinAddr: 0x100009A04, symSize: 0x2C }
  - { offsetInCU: 0x111FD, offset: 0x38B05, size: 0x8, addend: 0x0, symName: __ZNSt3__19allocatorI6ButtonEC2B8ne180100Ev, symObjAddr: 0x21EC, symBinAddr: 0x100009A30, symSize: 0x2C }
  - { offsetInCU: 0x11225, offset: 0x38B2D, size: 0x8, addend: 0x0, symName: __ZNSt3__116__non_trivial_ifILb1ENS_9allocatorI6ButtonEEEC2B8ne180100Ev, symObjAddr: 0x2218, symBinAddr: 0x100009A5C, symSize: 0x14 }
  - { offsetInCU: 0x1124D, offset: 0x38B55, size: 0x8, addend: 0x0, symName: __ZNSt3__16vectorI6ButtonNS_9allocatorIS1_EEED2B8ne180100Ev, symObjAddr: 0x222C, symBinAddr: 0x100009A70, symSize: 0x44 }
  - { offsetInCU: 0x11275, offset: 0x38B7D, size: 0x8, addend: 0x0, symName: __ZNSt3__16vectorI6ButtonNS_9allocatorIS1_EEE16__destroy_vectorC1B8ne180100ERS4_, symObjAddr: 0x2270, symBinAddr: 0x100009AB4, symSize: 0x34 }
  - { offsetInCU: 0x112AC, offset: 0x38BB4, size: 0x8, addend: 0x0, symName: __ZNSt3__16vectorI6ButtonNS_9allocatorIS1_EEE16__destroy_vectorclB8ne180100Ev, symObjAddr: 0x22A4, symBinAddr: 0x100009AE8, symSize: 0x90 }
  - { offsetInCU: 0x112D0, offset: 0x38BD8, size: 0x8, addend: 0x0, symName: __ZNSt3__16vectorI6ButtonNS_9allocatorIS1_EEE16__destroy_vectorC2B8ne180100ERS4_, symObjAddr: 0x2334, symBinAddr: 0x100009B78, symSize: 0x20 }
  - { offsetInCU: 0x11307, offset: 0x38C0F, size: 0x8, addend: 0x0, symName: __ZNSt3__16vectorI6ButtonNS_9allocatorIS1_EEE7__clearB8ne180100Ev, symObjAddr: 0x2354, symBinAddr: 0x100009B98, symSize: 0x28 }
  - { offsetInCU: 0x1132B, offset: 0x38C33, size: 0x8, addend: 0x0, symName: __ZNKSt3__16vectorI6ButtonNS_9allocatorIS1_EEE17__annotate_deleteB8ne180100Ev, symObjAddr: 0x237C, symBinAddr: 0x100009BC0, symSize: 0x10 }
  - { offsetInCU: 0x1134F, offset: 0x38C57, size: 0x8, addend: 0x0, symName: __ZNSt3__116allocator_traitsINS_9allocatorI6ButtonEEE10deallocateB8ne180100ERS3_PS2_m, symObjAddr: 0x238C, symBinAddr: 0x100009BD0, symSize: 0x34 }
  - { offsetInCU: 0x11390, offset: 0x38C98, size: 0x8, addend: 0x0, symName: __ZNSt3__16vectorI6ButtonNS_9allocatorIS1_EEE7__allocB8ne180100Ev, symObjAddr: 0x23C0, symBinAddr: 0x100009C04, symSize: 0x28 }
  - { offsetInCU: 0x113B4, offset: 0x38CBC, size: 0x8, addend: 0x0, symName: __ZNKSt3__16vectorI6ButtonNS_9allocatorIS1_EEE8capacityB8ne180100Ev, symObjAddr: 0x23E8, symBinAddr: 0x100009C2C, symSize: 0x40 }
  - { offsetInCU: 0x113D8, offset: 0x38CE0, size: 0x8, addend: 0x0, symName: __ZNSt3__16vectorI6ButtonNS_9allocatorIS1_EEE22__base_destruct_at_endB8ne180100EPS1_, symObjAddr: 0x2428, symBinAddr: 0x100009C6C, symSize: 0x8C }
  - { offsetInCU: 0x1141A, offset: 0x38D22, size: 0x8, addend: 0x0, symName: __ZNSt3__116allocator_traitsINS_9allocatorI6ButtonEEE7destroyB8ne180100IS2_vEEvRS3_PT_, symObjAddr: 0x24B4, symBinAddr: 0x100009CF8, symSize: 0x2C }
  - { offsetInCU: 0x11456, offset: 0x38D5E, size: 0x8, addend: 0x0, symName: __ZNSt3__19allocatorI6ButtonE7destroyB8ne180100EPS1_, symObjAddr: 0x24F4, symBinAddr: 0x100009D38, symSize: 0x28 }
  - { offsetInCU: 0x11488, offset: 0x38D90, size: 0x8, addend: 0x0, symName: __ZN6ButtonD1Ev, symObjAddr: 0x251C, symBinAddr: 0x100009D60, symSize: 0x2C }
  - { offsetInCU: 0x114B2, offset: 0x38DBA, size: 0x8, addend: 0x0, symName: __ZN6ButtonD2Ev, symObjAddr: 0x2548, symBinAddr: 0x100009D8C, symSize: 0x30 }
  - { offsetInCU: 0x114DC, offset: 0x38DE4, size: 0x8, addend: 0x0, symName: __ZNSt3__19allocatorI6ButtonE10deallocateB8ne180100EPS1_m, symObjAddr: 0x268C, symBinAddr: 0x100009DBC, symSize: 0x40 }
  - { offsetInCU: 0x1151C, offset: 0x38E24, size: 0x8, addend: 0x0, symName: __ZNSt3__117__compressed_pairIP6ButtonNS_9allocatorIS1_EEE6secondB8ne180100Ev, symObjAddr: 0x26CC, symBinAddr: 0x100009DFC, symSize: 0x24 }
  - { offsetInCU: 0x11540, offset: 0x38E48, size: 0x8, addend: 0x0, symName: __ZNSt3__122__compressed_pair_elemINS_9allocatorI6ButtonEELi1ELb1EE5__getB8ne180100Ev, symObjAddr: 0x26F0, symBinAddr: 0x100009E20, symSize: 0x14 }
  - { offsetInCU: 0x11564, offset: 0x38E6C, size: 0x8, addend: 0x0, symName: __ZNKSt3__16vectorI6ButtonNS_9allocatorIS1_EEE9__end_capB8ne180100Ev, symObjAddr: 0x2704, symBinAddr: 0x100009E34, symSize: 0x28 }
  - { offsetInCU: 0x11588, offset: 0x38E90, size: 0x8, addend: 0x0, symName: __ZNKSt3__117__compressed_pairIP6ButtonNS_9allocatorIS1_EEE5firstB8ne180100Ev, symObjAddr: 0x272C, symBinAddr: 0x100009E5C, symSize: 0x24 }
  - { offsetInCU: 0x115AC, offset: 0x38EB4, size: 0x8, addend: 0x0, symName: __ZNKSt3__122__compressed_pair_elemIP6ButtonLi0ELb0EE5__getB8ne180100Ev, symObjAddr: 0x2750, symBinAddr: 0x100009E80, symSize: 0x14 }
  - { offsetInCU: 0x115D0, offset: 0x38ED8, size: 0x8, addend: 0x0, symName: __ZNSt3__16vectorI6ButtonNS_9allocatorIS1_EEE9__end_capB8ne180100Ev, symObjAddr: 0x27BC, symBinAddr: 0x100009E94, symSize: 0x28 }
  - { offsetInCU: 0x115F4, offset: 0x38EFC, size: 0x8, addend: 0x0, symName: '__ZNSt3__16vectorI6ButtonNS_9allocatorIS1_EEE22__construct_one_at_endB8ne180100IJRP8GameTextiiii9SDL_ColorZ4mainE3$_0EEEvDpOT_', symObjAddr: 0x27E4, symBinAddr: 0x100009EBC, symSize: 0xC8 }
  - { offsetInCU: 0x116BA, offset: 0x38FC2, size: 0x8, addend: 0x0, symName: '__ZNSt3__16vectorI6ButtonNS_9allocatorIS1_EEE24__emplace_back_slow_pathIJRP8GameTextiiii9SDL_ColorZ4mainE3$_0EEEPS1_DpOT_', symObjAddr: 0x28AC, symBinAddr: 0x100009F84, symSize: 0x120 }
  - { offsetInCU: 0x11792, offset: 0x3909A, size: 0x8, addend: 0x0, symName: __ZNSt3__117__compressed_pairIP6ButtonNS_9allocatorIS1_EEE5firstB8ne180100Ev, symObjAddr: 0x29CC, symBinAddr: 0x10000A0A4, symSize: 0x24 }
  - { offsetInCU: 0x117B6, offset: 0x390BE, size: 0x8, addend: 0x0, symName: __ZNSt3__122__compressed_pair_elemIP6ButtonLi0ELb0EE5__getB8ne180100Ev, symObjAddr: 0x29F0, symBinAddr: 0x10000A0C8, symSize: 0x14 }
  - { offsetInCU: 0x117F3, offset: 0x390FB, size: 0x8, addend: 0x0, symName: __ZNSt3__16vectorI6ButtonNS_9allocatorIS1_EEE21_ConstructTransactionC1B8ne180100ERS4_m, symObjAddr: 0x2A04, symBinAddr: 0x10000A0DC, symSize: 0x3C }
  - { offsetInCU: 0x11839, offset: 0x39141, size: 0x8, addend: 0x0, symName: '__ZNSt3__116allocator_traitsINS_9allocatorI6ButtonEEE9constructB8ne180100IS2_JRP8GameTextiiii9SDL_ColorZ4mainE3$_0EvEEvRS3_PT_DpOT0_', symObjAddr: 0x2A40, symBinAddr: 0x10000A118, symSize: 0x70 }
  - { offsetInCU: 0x11907, offset: 0x3920F, size: 0x8, addend: 0x0, symName: __ZNSt3__16vectorI6ButtonNS_9allocatorIS1_EEE21_ConstructTransactionD1B8ne180100Ev, symObjAddr: 0x2AB0, symBinAddr: 0x10000A188, symSize: 0x2C }
  - { offsetInCU: 0x1192F, offset: 0x39237, size: 0x8, addend: 0x0, symName: __ZNSt3__16vectorI6ButtonNS_9allocatorIS1_EEE21_ConstructTransactionC2B8ne180100ERS4_m, symObjAddr: 0x2ADC, symBinAddr: 0x10000A1B4, symSize: 0x44 }
  - { offsetInCU: 0x11975, offset: 0x3927D, size: 0x8, addend: 0x0, symName: '__ZNSt3__19allocatorI6ButtonE9constructB8ne180100IS1_JRP8GameTextiiii9SDL_ColorZ4mainE3$_0EEEvPT_DpOT0_', symObjAddr: 0x2B20, symBinAddr: 0x10000A1F8, symSize: 0x138 }
  - { offsetInCU: 0x11A41, offset: 0x39349, size: 0x8, addend: 0x0, symName: '__ZNSt3__18functionIFvvEEC1IZ4mainE3$_0vEET_', symObjAddr: 0x2C58, symBinAddr: 0x10000A330, symSize: 0x34 }
  - { offsetInCU: 0x11A84, offset: 0x3938C, size: 0x8, addend: 0x0, symName: '__ZNSt3__18functionIFvvEEC2IZ4mainE3$_0vEET_', symObjAddr: 0x2C8C, symBinAddr: 0x10000A364, symSize: 0x38 }
  - { offsetInCU: 0x11AC7, offset: 0x393CF, size: 0x8, addend: 0x0, symName: '__ZNSt3__110__function12__value_funcIFvvEEC1B8ne180100IZ4mainE3$_0Li0EEEOT_', symObjAddr: 0x2CC4, symBinAddr: 0x10000A39C, symSize: 0x50 }
  - { offsetInCU: 0x11B0D, offset: 0x39415, size: 0x8, addend: 0x0, symName: '__ZNSt3__19allocatorIZ4mainE3$_0EC1B8ne180100Ev', symObjAddr: 0x2D14, symBinAddr: 0x10000A3EC, symSize: 0x2C }
  - { offsetInCU: 0x11B35, offset: 0x3943D, size: 0x8, addend: 0x0, symName: '__ZNSt3__110__function12__value_funcIFvvEEC1B8ne180100IZ4mainE3$_0NS_9allocatorIS5_EEEEOT_RKT0_', symObjAddr: 0x2D40, symBinAddr: 0x10000A418, symSize: 0x3C }
  - { offsetInCU: 0x11B8D, offset: 0x39495, size: 0x8, addend: 0x0, symName: '__ZNSt3__19allocatorIZ4mainE3$_0EC2B8ne180100Ev', symObjAddr: 0x2D7C, symBinAddr: 0x10000A454, symSize: 0x2C }
  - { offsetInCU: 0x11BB5, offset: 0x394BD, size: 0x8, addend: 0x0, symName: '__ZNSt3__116__non_trivial_ifILb1ENS_9allocatorIZ4mainE3$_0EEEC2B8ne180100Ev', symObjAddr: 0x2DA8, symBinAddr: 0x10000A480, symSize: 0x14 }
  - { offsetInCU: 0x11BDD, offset: 0x394E5, size: 0x8, addend: 0x0, symName: '__ZNSt3__110__function12__value_funcIFvvEEC2B8ne180100IZ4mainE3$_0NS_9allocatorIS5_EEEEOT_RKT0_', symObjAddr: 0x2DBC, symBinAddr: 0x10000A494, symSize: 0x94 }
  - { offsetInCU: 0x11C81, offset: 0x39589, size: 0x8, addend: 0x0, symName: '__ZNSt3__19allocatorINS_10__function6__funcIZ4mainE3$_0NS0_IS3_EEFvvEEEEC1B8ne180100IS3_EERKNS0_IT_EE', symObjAddr: 0x2E68, symBinAddr: 0x10000A540, symSize: 0x34 }
  - { offsetInCU: 0x11CC1, offset: 0x395C9, size: 0x8, addend: 0x0, symName: '__ZNSt3__19allocatorIZ4mainE3$_0EC1B8ne180100INS_10__function6__funcIS1_S2_FvvEEEEERKNS0_IT_EE', symObjAddr: 0x2E9C, symBinAddr: 0x10000A574, symSize: 0x34 }
  - { offsetInCU: 0x11CFC, offset: 0x39604, size: 0x8, addend: 0x0, symName: '__ZNSt3__110__function6__funcIZ4mainE3$_0NS_9allocatorIS2_EEFvvEEC1B8ne180100EOS2_OS4_', symObjAddr: 0x2ED0, symBinAddr: 0x10000A5A8, symSize: 0x3C }
  - { offsetInCU: 0x11D42, offset: 0x3964A, size: 0x8, addend: 0x0, symName: '__ZNSt3__19allocatorINS_10__function6__funcIZ4mainE3$_0NS0_IS3_EEFvvEEEEC2B8ne180100IS3_EERKNS0_IT_EE', symObjAddr: 0x2F0C, symBinAddr: 0x10000A5E4, symSize: 0x30 }
  - { offsetInCU: 0x11D7D, offset: 0x39685, size: 0x8, addend: 0x0, symName: '__ZNSt3__116__non_trivial_ifILb1ENS_9allocatorINS_10__function6__funcIZ4mainE3$_0NS1_IS4_EEFvvEEEEEEC2B8ne180100Ev', symObjAddr: 0x2F3C, symBinAddr: 0x10000A614, symSize: 0x14 }
  - { offsetInCU: 0x11DA5, offset: 0x396AD, size: 0x8, addend: 0x0, symName: '__ZNSt3__19allocatorIZ4mainE3$_0EC2B8ne180100INS_10__function6__funcIS1_S2_FvvEEEEERKNS0_IT_EE', symObjAddr: 0x2F50, symBinAddr: 0x10000A628, symSize: 0x30 }
  - { offsetInCU: 0x11DE0, offset: 0x396E8, size: 0x8, addend: 0x0, symName: '__ZNSt3__110__function6__funcIZ4mainE3$_0NS_9allocatorIS2_EEFvvEEC2B8ne180100EOS2_OS4_', symObjAddr: 0x2F80, symBinAddr: 0x10000A658, symSize: 0x88 }
  - { offsetInCU: 0x11E26, offset: 0x3972E, size: 0x8, addend: 0x0, symName: __ZNSt3__110__function6__baseIFvvEEC2B8ne180100Ev, symObjAddr: 0x3008, symBinAddr: 0x10000A6E0, symSize: 0x24 }
  - { offsetInCU: 0x11E4E, offset: 0x39756, size: 0x8, addend: 0x0, symName: '__ZNSt3__110__function12__alloc_funcIZ4mainE3$_0NS_9allocatorIS2_EEFvvEEC1B8ne180100EOS2_OS4_', symObjAddr: 0x302C, symBinAddr: 0x10000A704, symSize: 0x3C }
  - { offsetInCU: 0x11E92, offset: 0x3979A, size: 0x8, addend: 0x0, symName: __ZNSt3__110__function6__baseIFvvEED2Ev, symObjAddr: 0x3068, symBinAddr: 0x10000A740, symSize: 0x14 }
  - { offsetInCU: 0x11EBA, offset: 0x397C2, size: 0x8, addend: 0x0, symName: '__ZNSt3__110__function6__funcIZ4mainE3$_0NS_9allocatorIS2_EEFvvEED1Ev', symObjAddr: 0x307C, symBinAddr: 0x10000A754, symSize: 0x2C }
  - { offsetInCU: 0x11EE4, offset: 0x397EC, size: 0x8, addend: 0x0, symName: '__ZNSt3__110__function6__funcIZ4mainE3$_0NS_9allocatorIS2_EEFvvEED0Ev', symObjAddr: 0x30A8, symBinAddr: 0x10000A780, symSize: 0x30 }
  - { offsetInCU: 0x11F0E, offset: 0x39816, size: 0x8, addend: 0x0, symName: '__ZNKSt3__110__function6__funcIZ4mainE3$_0NS_9allocatorIS2_EEFvvEE7__cloneEv', symObjAddr: 0x30D8, symBinAddr: 0x10000A7B0, symSize: 0xFC }
  - { offsetInCU: 0x11F5E, offset: 0x39866, size: 0x8, addend: 0x0, symName: '__ZNKSt3__110__function6__funcIZ4mainE3$_0NS_9allocatorIS2_EEFvvEE7__cloneEPNS0_6__baseIS5_EE', symObjAddr: 0x31D4, symBinAddr: 0x10000A8AC, symSize: 0x58 }
  - { offsetInCU: 0x11F93, offset: 0x3989B, size: 0x8, addend: 0x0, symName: '__ZNSt3__110__function6__funcIZ4mainE3$_0NS_9allocatorIS2_EEFvvEE7destroyEv', symObjAddr: 0x322C, symBinAddr: 0x10000A904, symSize: 0x28 }
  - { offsetInCU: 0x11FB9, offset: 0x398C1, size: 0x8, addend: 0x0, symName: '__ZNSt3__110__function6__funcIZ4mainE3$_0NS_9allocatorIS2_EEFvvEE18destroy_deallocateEv', symObjAddr: 0x3254, symBinAddr: 0x10000A92C, symSize: 0x58 }
  - { offsetInCU: 0x11FFA, offset: 0x39902, size: 0x8, addend: 0x0, symName: '__ZNSt3__110__function6__funcIZ4mainE3$_0NS_9allocatorIS2_EEFvvEEclEv', symObjAddr: 0x32AC, symBinAddr: 0x10000A984, symSize: 0x28 }
  - { offsetInCU: 0x12020, offset: 0x39928, size: 0x8, addend: 0x0, symName: '__ZNKSt3__110__function6__funcIZ4mainE3$_0NS_9allocatorIS2_EEFvvEE6targetERKSt9type_info', symObjAddr: 0x32D4, symBinAddr: 0x10000A9AC, symSize: 0x60 }
  - { offsetInCU: 0x12055, offset: 0x3995D, size: 0x8, addend: 0x0, symName: '__ZNKSt3__110__function6__funcIZ4mainE3$_0NS_9allocatorIS2_EEFvvEE11target_typeEv', symObjAddr: 0x3334, symBinAddr: 0x10000AA0C, symSize: 0x18 }
  - { offsetInCU: 0x1207B, offset: 0x39983, size: 0x8, addend: 0x0, symName: __ZNSt3__110__function6__baseIFvvEED1Ev, symObjAddr: 0x334C, symBinAddr: 0x10000AA24, symSize: 0x14 }
  - { offsetInCU: 0x120A3, offset: 0x399AB, size: 0x8, addend: 0x0, symName: __ZNSt3__110__function6__baseIFvvEED0Ev, symObjAddr: 0x3360, symBinAddr: 0x10000AA38, symSize: 0xC }
  - { offsetInCU: 0x120CB, offset: 0x399D3, size: 0x8, addend: 0x0, symName: '__ZNSt3__110__function12__alloc_funcIZ4mainE3$_0NS_9allocatorIS2_EEFvvEEC2B8ne180100EOS2_OS4_', symObjAddr: 0x336C, symBinAddr: 0x10000AA44, symSize: 0x5C }
  - { offsetInCU: 0x1210F, offset: 0x39A17, size: 0x8, addend: 0x0, symName: '__ZNSt3__117__compressed_pairIZ4mainE3$_0NS_9allocatorIS1_EEEC1B8ne180100IJOS1_EJOS3_EEENS_21piecewise_construct_tENS_5tupleIJDpT_EEENS9_IJDpT0_EEE', symObjAddr: 0x3420, symBinAddr: 0x10000AAF8, symSize: 0x3C }
  - { offsetInCU: 0x12177, offset: 0x39A7F, size: 0x8, addend: 0x0, symName: '__ZNSt3__15tupleIJOZ4mainE3$_0EEC1B8ne180100IJS1_ELi0EEEDpOT_', symObjAddr: 0x345C, symBinAddr: 0x10000AB34, symSize: 0x34 }
  - { offsetInCU: 0x121BF, offset: 0x39AC7, size: 0x8, addend: 0x0, symName: '__ZNSt3__15tupleIJOZ4mainE3$_0EEC2B8ne180100IJS1_ELi0EEEDpOT_', symObjAddr: 0x3490, symBinAddr: 0x10000AB68, symSize: 0x34 }
  - { offsetInCU: 0x12207, offset: 0x39B0F, size: 0x8, addend: 0x0, symName: '__ZNSt3__112__tuple_implINS_15__tuple_indicesIJLm0EEEEJOZ4mainE3$_0EEC1B8ne180100IJLm0EEJS4_EJEJEJS3_EEENS1_IJXspT_EEEENS_13__tuple_typesIJDpT0_EEENS1_IJXspT1_EEEENS8_IJDpT2_EEEDpOT3_', symObjAddr: 0x34C4, symBinAddr: 0x10000AB9C, symSize: 0x34 }
  - { offsetInCU: 0x12296, offset: 0x39B9E, size: 0x8, addend: 0x0, symName: '__ZNSt3__112__tuple_implINS_15__tuple_indicesIJLm0EEEEJOZ4mainE3$_0EEC2B8ne180100IJLm0EEJS4_EJEJEJS3_EEENS1_IJXspT_EEEENS_13__tuple_typesIJDpT0_EEENS1_IJXspT1_EEEENS8_IJDpT2_EEEDpOT3_', symObjAddr: 0x34F8, symBinAddr: 0x10000ABD0, symSize: 0x34 }
  - { offsetInCU: 0x12325, offset: 0x39C2D, size: 0x8, addend: 0x0, symName: '__ZNSt3__112__tuple_leafILm0EOZ4mainE3$_0Lb0EEC2B8ne180100IS1_vEEOT_', symObjAddr: 0x352C, symBinAddr: 0x10000AC04, symSize: 0x20 }
  - { offsetInCU: 0x12366, offset: 0x39C6E, size: 0x8, addend: 0x0, symName: '__ZNSt3__15tupleIJONS_9allocatorIZ4mainE3$_0EEEEC1B8ne180100IJS3_ELi0EEEDpOT_', symObjAddr: 0x354C, symBinAddr: 0x10000AC24, symSize: 0x34 }
  - { offsetInCU: 0x123AE, offset: 0x39CB6, size: 0x8, addend: 0x0, symName: '__ZNSt3__15tupleIJONS_9allocatorIZ4mainE3$_0EEEEC2B8ne180100IJS3_ELi0EEEDpOT_', symObjAddr: 0x3580, symBinAddr: 0x10000AC58, symSize: 0x34 }
  - { offsetInCU: 0x123F6, offset: 0x39CFE, size: 0x8, addend: 0x0, symName: '__ZNSt3__112__tuple_implINS_15__tuple_indicesIJLm0EEEEJONS_9allocatorIZ4mainE3$_0EEEEC1B8ne180100IJLm0EEJS6_EJEJEJS5_EEENS1_IJXspT_EEEENS_13__tuple_typesIJDpT0_EEENS1_IJXspT1_EEEENSA_IJDpT2_EEEDpOT3_', symObjAddr: 0x35B4, symBinAddr: 0x10000AC8C, symSize: 0x34 }
  - { offsetInCU: 0x12485, offset: 0x39D8D, size: 0x8, addend: 0x0, symName: '__ZNSt3__112__tuple_implINS_15__tuple_indicesIJLm0EEEEJONS_9allocatorIZ4mainE3$_0EEEEC2B8ne180100IJLm0EEJS6_EJEJEJS5_EEENS1_IJXspT_EEEENS_13__tuple_typesIJDpT0_EEENS1_IJXspT1_EEEENSA_IJDpT2_EEEDpOT3_', symObjAddr: 0x35E8, symBinAddr: 0x10000ACC0, symSize: 0x34 }
  - { offsetInCU: 0x12514, offset: 0x39E1C, size: 0x8, addend: 0x0, symName: '__ZNSt3__112__tuple_leafILm0EONS_9allocatorIZ4mainE3$_0EELb0EEC2B8ne180100IS3_vEEOT_', symObjAddr: 0x361C, symBinAddr: 0x10000ACF4, symSize: 0x20 }
  - { offsetInCU: 0x12555, offset: 0x39E5D, size: 0x8, addend: 0x0, symName: '__ZNSt3__117__compressed_pairIZ4mainE3$_0NS_9allocatorIS1_EEEC2B8ne180100IJOS1_EJOS3_EEENS_21piecewise_construct_tENS_5tupleIJDpT_EEENS9_IJDpT0_EEE', symObjAddr: 0x363C, symBinAddr: 0x10000AD14, symSize: 0x54 }
  - { offsetInCU: 0x125BD, offset: 0x39EC5, size: 0x8, addend: 0x0, symName: '__ZNSt3__122__compressed_pair_elemIZ4mainE3$_0Li0ELb0EEC2B8ne180100IJOS1_EJLm0EEEENS_21piecewise_construct_tENS_5tupleIJDpT_EEENS_15__tuple_indicesIJXspT0_EEEE', symObjAddr: 0x3690, symBinAddr: 0x10000AD68, symSize: 0x44 }
  - { offsetInCU: 0x1261E, offset: 0x39F26, size: 0x8, addend: 0x0, symName: '__ZNSt3__122__compressed_pair_elemINS_9allocatorIZ4mainE3$_0EELi1ELb1EEC2B8ne180100IJOS3_EJLm0EEEENS_21piecewise_construct_tENS_5tupleIJDpT_EEENS_15__tuple_indicesIJXspT0_EEEE', symObjAddr: 0x36D4, symBinAddr: 0x10000ADAC, symSize: 0x38 }
  - { offsetInCU: 0x1267F, offset: 0x39F87, size: 0x8, addend: 0x0, symName: '__ZNSt3__112__tuple_leafILm0EOZ4mainE3$_0Lb0EE3getB8ne180100Ev', symObjAddr: 0x3730, symBinAddr: 0x10000AE08, symSize: 0x18 }
  - { offsetInCU: 0x126A3, offset: 0x39FAB, size: 0x8, addend: 0x0, symName: '__ZNSt3__112__tuple_leafILm0EONS_9allocatorIZ4mainE3$_0EELb0EE3getB8ne180100Ev', symObjAddr: 0x376C, symBinAddr: 0x10000AE44, symSize: 0x18 }
  - { offsetInCU: 0x126C7, offset: 0x39FCF, size: 0x8, addend: 0x0, symName: '__ZNSt3__110__function6__funcIZ4mainE3$_0NS_9allocatorIS2_EEFvvEED2Ev', symObjAddr: 0x3784, symBinAddr: 0x10000AE5C, symSize: 0x2C }
  - { offsetInCU: 0x126F1, offset: 0x39FF9, size: 0x8, addend: 0x0, symName: '__ZNKSt3__110__function12__alloc_funcIZ4mainE3$_0NS_9allocatorIS2_EEFvvEE15__get_allocatorB8ne180100Ev', symObjAddr: 0x37B0, symBinAddr: 0x10000AE88, symSize: 0x24 }
  - { offsetInCU: 0x12715, offset: 0x3A01D, size: 0x8, addend: 0x0, symName: '__ZNSt3__19allocatorINS_10__function6__funcIZ4mainE3$_0NS0_IS3_EEFvvEEEE8allocateB8ne180100Em', symObjAddr: 0x37D4, symBinAddr: 0x10000AEAC, symSize: 0x58 }
  - { offsetInCU: 0x12756, offset: 0x3A05E, size: 0x8, addend: 0x0, symName: '__ZNSt3__122__allocator_destructorINS_9allocatorINS_10__function6__funcIZ4mainE3$_0NS1_IS4_EEFvvEEEEEEC1B8ne180100ERS8_m', symObjAddr: 0x382C, symBinAddr: 0x10000AF04, symSize: 0x3C }
  - { offsetInCU: 0x12826, offset: 0x3A12E, size: 0x8, addend: 0x0, symName: '__ZNSt3__110unique_ptrINS_10__function6__funcIZ4mainE3$_0NS_9allocatorIS3_EEFvvEEENS_22__allocator_destructorINS4_IS7_EEEEEC1B8ne180100ILb1EvEEPS7_NS_16__dependent_typeINS_27__unique_ptr_deleter_sfinaeISA_EEXT_EE20__good_rval_ref_typeE', symObjAddr: 0x3868, symBinAddr: 0x10000AF40, symSize: 0x3C }
  - { offsetInCU: 0x12875, offset: 0x3A17D, size: 0x8, addend: 0x0, symName: '__ZNKSt3__110unique_ptrINS_10__function6__funcIZ4mainE3$_0NS_9allocatorIS3_EEFvvEEENS_22__allocator_destructorINS4_IS7_EEEEE3getB8ne180100Ev', symObjAddr: 0x38A4, symBinAddr: 0x10000AF7C, symSize: 0x28 }
  - { offsetInCU: 0x12899, offset: 0x3A1A1, size: 0x8, addend: 0x0, symName: '__ZNKSt3__110__function12__alloc_funcIZ4mainE3$_0NS_9allocatorIS2_EEFvvEE8__targetB8ne180100Ev', symObjAddr: 0x38CC, symBinAddr: 0x10000AFA4, symSize: 0x24 }
  - { offsetInCU: 0x128BD, offset: 0x3A1C5, size: 0x8, addend: 0x0, symName: '__ZNSt3__110__function6__funcIZ4mainE3$_0NS_9allocatorIS2_EEFvvEEC1B8ne180100ERKS2_OS4_', symObjAddr: 0x38F0, symBinAddr: 0x10000AFC8, symSize: 0x3C }
  - { offsetInCU: 0x12903, offset: 0x3A20B, size: 0x8, addend: 0x0, symName: '__ZNSt3__110unique_ptrINS_10__function6__funcIZ4mainE3$_0NS_9allocatorIS3_EEFvvEEENS_22__allocator_destructorINS4_IS7_EEEEE7releaseB8ne180100Ev', symObjAddr: 0x392C, symBinAddr: 0x10000B004, symSize: 0x44 }
  - { offsetInCU: 0x12936, offset: 0x3A23E, size: 0x8, addend: 0x0, symName: '__ZNSt3__110unique_ptrINS_10__function6__funcIZ4mainE3$_0NS_9allocatorIS3_EEFvvEEENS_22__allocator_destructorINS4_IS7_EEEEED1B8ne180100Ev', symObjAddr: 0x3970, symBinAddr: 0x10000B048, symSize: 0x2C }
  - { offsetInCU: 0x1295E, offset: 0x3A266, size: 0x8, addend: 0x0, symName: '__ZNKSt3__117__compressed_pairIZ4mainE3$_0NS_9allocatorIS1_EEE6secondB8ne180100Ev', symObjAddr: 0x399C, symBinAddr: 0x10000B074, symSize: 0x24 }
  - { offsetInCU: 0x12982, offset: 0x3A28A, size: 0x8, addend: 0x0, symName: '__ZNKSt3__122__compressed_pair_elemINS_9allocatorIZ4mainE3$_0EELi1ELb1EE5__getB8ne180100Ev', symObjAddr: 0x39C0, symBinAddr: 0x10000B098, symSize: 0x14 }
  - { offsetInCU: 0x129B0, offset: 0x3A2B8, size: 0x8, addend: 0x0, symName: '__ZNSt3__116allocator_traitsINS_9allocatorINS_10__function6__funcIZ4mainE3$_0NS1_IS4_EEFvvEEEEEE8max_sizeB8ne180100IS8_vEEmRKS8_', symObjAddr: 0x39D4, symBinAddr: 0x10000B0AC, symSize: 0x24 }
  - { offsetInCU: 0x129DD, offset: 0x3A2E5, size: 0x8, addend: 0x0, symName: '__ZNKSt3__19allocatorINS_10__function6__funcIZ4mainE3$_0NS0_IS3_EEFvvEEEE8max_sizeB8ne180100Ev', symObjAddr: 0x3A54, symBinAddr: 0x10000B0D0, symSize: 0x14 }
  - { offsetInCU: 0x12A01, offset: 0x3A309, size: 0x8, addend: 0x0, symName: '__ZNSt3__122__allocator_destructorINS_9allocatorINS_10__function6__funcIZ4mainE3$_0NS1_IS4_EEFvvEEEEEEC2B8ne180100ERS8_m', symObjAddr: 0x3A8C, symBinAddr: 0x10000B0E4, symSize: 0x2C }
  - { offsetInCU: 0x12A45, offset: 0x3A34D, size: 0x8, addend: 0x0, symName: '__ZNSt3__110unique_ptrINS_10__function6__funcIZ4mainE3$_0NS_9allocatorIS3_EEFvvEEENS_22__allocator_destructorINS4_IS7_EEEEEC2B8ne180100ILb1EvEEPS7_NS_16__dependent_typeINS_27__unique_ptr_deleter_sfinaeISA_EEXT_EE20__good_rval_ref_typeE', symObjAddr: 0x3AB8, symBinAddr: 0x10000B110, symSize: 0x48 }
  - { offsetInCU: 0x12A94, offset: 0x3A39C, size: 0x8, addend: 0x0, symName: '__ZNSt3__117__compressed_pairIPNS_10__function6__funcIZ4mainE3$_0NS_9allocatorIS3_EEFvvEEENS_22__allocator_destructorINS4_IS7_EEEEEC1B8ne180100IRS8_SB_EEOT_OT0_', symObjAddr: 0x3B00, symBinAddr: 0x10000B158, symSize: 0x3C }
  - { offsetInCU: 0x12AEA, offset: 0x3A3F2, size: 0x8, addend: 0x0, symName: '__ZNSt3__117__compressed_pairIPNS_10__function6__funcIZ4mainE3$_0NS_9allocatorIS3_EEFvvEEENS_22__allocator_destructorINS4_IS7_EEEEEC2B8ne180100IRS8_SB_EEOT_OT0_', symObjAddr: 0x3B3C, symBinAddr: 0x10000B194, symSize: 0x48 }
  - { offsetInCU: 0x12B40, offset: 0x3A448, size: 0x8, addend: 0x0, symName: '__ZNSt3__122__compressed_pair_elemIPNS_10__function6__funcIZ4mainE3$_0NS_9allocatorIS3_EEFvvEEELi0ELb0EEC2B8ne180100IRS8_vEEOT_', symObjAddr: 0x3B84, symBinAddr: 0x10000B1DC, symSize: 0x24 }
  - { offsetInCU: 0x12B80, offset: 0x3A488, size: 0x8, addend: 0x0, symName: '__ZNSt3__122__compressed_pair_elemINS_22__allocator_destructorINS_9allocatorINS_10__function6__funcIZ4mainE3$_0NS2_IS5_EEFvvEEEEEEELi1ELb0EEC2B8ne180100ISA_vEEOT_', symObjAddr: 0x3BA8, symBinAddr: 0x10000B200, symSize: 0x24 }
  - { offsetInCU: 0x12BC0, offset: 0x3A4C8, size: 0x8, addend: 0x0, symName: '__ZNKSt3__117__compressed_pairIPNS_10__function6__funcIZ4mainE3$_0NS_9allocatorIS3_EEFvvEEENS_22__allocator_destructorINS4_IS7_EEEEE5firstB8ne180100Ev', symObjAddr: 0x3BCC, symBinAddr: 0x10000B224, symSize: 0x24 }
  - { offsetInCU: 0x12BE4, offset: 0x3A4EC, size: 0x8, addend: 0x0, symName: '__ZNKSt3__122__compressed_pair_elemIPNS_10__function6__funcIZ4mainE3$_0NS_9allocatorIS3_EEFvvEEELi0ELb0EE5__getB8ne180100Ev', symObjAddr: 0x3BF0, symBinAddr: 0x10000B248, symSize: 0x14 }
  - { offsetInCU: 0x12C08, offset: 0x3A510, size: 0x8, addend: 0x0, symName: '__ZNKSt3__117__compressed_pairIZ4mainE3$_0NS_9allocatorIS1_EEE5firstB8ne180100Ev', symObjAddr: 0x3C04, symBinAddr: 0x10000B25C, symSize: 0x24 }
  - { offsetInCU: 0x12C2C, offset: 0x3A534, size: 0x8, addend: 0x0, symName: '__ZNKSt3__122__compressed_pair_elemIZ4mainE3$_0Li0ELb0EE5__getB8ne180100Ev', symObjAddr: 0x3C28, symBinAddr: 0x10000B280, symSize: 0x14 }
  - { offsetInCU: 0x12C50, offset: 0x3A558, size: 0x8, addend: 0x0, symName: '__ZNSt3__110__function6__funcIZ4mainE3$_0NS_9allocatorIS2_EEFvvEEC2B8ne180100ERKS2_OS4_', symObjAddr: 0x3C3C, symBinAddr: 0x10000B294, symSize: 0x88 }
  - { offsetInCU: 0x12C96, offset: 0x3A59E, size: 0x8, addend: 0x0, symName: '__ZNSt3__110__function12__alloc_funcIZ4mainE3$_0NS_9allocatorIS2_EEFvvEEC1B8ne180100ERKS2_OS4_', symObjAddr: 0x3CC4, symBinAddr: 0x10000B31C, symSize: 0x3C }
  - { offsetInCU: 0x12CDA, offset: 0x3A5E2, size: 0x8, addend: 0x0, symName: '__ZNSt3__110__function12__alloc_funcIZ4mainE3$_0NS_9allocatorIS2_EEFvvEEC2B8ne180100ERKS2_OS4_', symObjAddr: 0x3D00, symBinAddr: 0x10000B358, symSize: 0x5C }
  - { offsetInCU: 0x12D1E, offset: 0x3A626, size: 0x8, addend: 0x0, symName: '__ZNSt3__117__compressed_pairIZ4mainE3$_0NS_9allocatorIS1_EEEC1B8ne180100IJRKS1_EJOS3_EEENS_21piecewise_construct_tENS_5tupleIJDpT_EEENSA_IJDpT0_EEE', symObjAddr: 0x3D88, symBinAddr: 0x10000B3E0, symSize: 0x3C }
  - { offsetInCU: 0x12D86, offset: 0x3A68E, size: 0x8, addend: 0x0, symName: '__ZNSt3__15tupleIJRKZ4mainE3$_0EEC1B8ne180100INS_4_AndELi0EEES3_', symObjAddr: 0x3DC4, symBinAddr: 0x10000B41C, symSize: 0x34 }
  - { offsetInCU: 0x12DCD, offset: 0x3A6D5, size: 0x8, addend: 0x0, symName: '__ZNSt3__15tupleIJRKZ4mainE3$_0EEC2B8ne180100INS_4_AndELi0EEES3_', symObjAddr: 0x3DF8, symBinAddr: 0x10000B450, symSize: 0x34 }
  - { offsetInCU: 0x12E14, offset: 0x3A71C, size: 0x8, addend: 0x0, symName: '__ZNSt3__112__tuple_implINS_15__tuple_indicesIJLm0EEEEJRKZ4mainE3$_0EEC1B8ne180100IJLm0EEJS5_EJEJEJS5_EEENS1_IJXspT_EEEENS_13__tuple_typesIJDpT0_EEENS1_IJXspT1_EEEENS9_IJDpT2_EEEDpOT3_', symObjAddr: 0x3E2C, symBinAddr: 0x10000B484, symSize: 0x34 }
  - { offsetInCU: 0x12EA3, offset: 0x3A7AB, size: 0x8, addend: 0x0, symName: '__ZNSt3__112__tuple_implINS_15__tuple_indicesIJLm0EEEEJRKZ4mainE3$_0EEC2B8ne180100IJLm0EEJS5_EJEJEJS5_EEENS1_IJXspT_EEEENS_13__tuple_typesIJDpT0_EEENS1_IJXspT1_EEEENS9_IJDpT2_EEEDpOT3_', symObjAddr: 0x3E60, symBinAddr: 0x10000B4B8, symSize: 0x34 }
  - { offsetInCU: 0x12F32, offset: 0x3A83A, size: 0x8, addend: 0x0, symName: '__ZNSt3__112__tuple_leafILm0ERKZ4mainE3$_0Lb0EEC2B8ne180100IS3_vEEOT_', symObjAddr: 0x3E94, symBinAddr: 0x10000B4EC, symSize: 0x20 }
  - { offsetInCU: 0x12F73, offset: 0x3A87B, size: 0x8, addend: 0x0, symName: '__ZNSt3__117__compressed_pairIZ4mainE3$_0NS_9allocatorIS1_EEEC2B8ne180100IJRKS1_EJOS3_EEENS_21piecewise_construct_tENS_5tupleIJDpT_EEENSA_IJDpT0_EEE', symObjAddr: 0x3EB4, symBinAddr: 0x10000B50C, symSize: 0x54 }
  - { offsetInCU: 0x12FDB, offset: 0x3A8E3, size: 0x8, addend: 0x0, symName: '__ZNSt3__122__compressed_pair_elemIZ4mainE3$_0Li0ELb0EEC2B8ne180100IJRKS1_EJLm0EEEENS_21piecewise_construct_tENS_5tupleIJDpT_EEENS_15__tuple_indicesIJXspT0_EEEE', symObjAddr: 0x3F08, symBinAddr: 0x10000B560, symSize: 0x44 }
  - { offsetInCU: 0x1303C, offset: 0x3A944, size: 0x8, addend: 0x0, symName: '__ZNSt3__112__tuple_leafILm0ERKZ4mainE3$_0Lb0EE3getB8ne180100Ev', symObjAddr: 0x3F70, symBinAddr: 0x10000B5C8, symSize: 0x18 }
  - { offsetInCU: 0x13060, offset: 0x3A968, size: 0x8, addend: 0x0, symName: '__ZNSt3__117__compressed_pairIPNS_10__function6__funcIZ4mainE3$_0NS_9allocatorIS3_EEFvvEEENS_22__allocator_destructorINS4_IS7_EEEEE5firstB8ne180100Ev', symObjAddr: 0x3F88, symBinAddr: 0x10000B5E0, symSize: 0x24 }
  - { offsetInCU: 0x13084, offset: 0x3A98C, size: 0x8, addend: 0x0, symName: '__ZNSt3__122__compressed_pair_elemIPNS_10__function6__funcIZ4mainE3$_0NS_9allocatorIS3_EEFvvEEELi0ELb0EE5__getB8ne180100Ev', symObjAddr: 0x3FAC, symBinAddr: 0x10000B604, symSize: 0x14 }
  - { offsetInCU: 0x130A8, offset: 0x3A9B0, size: 0x8, addend: 0x0, symName: '__ZNSt3__110unique_ptrINS_10__function6__funcIZ4mainE3$_0NS_9allocatorIS3_EEFvvEEENS_22__allocator_destructorINS4_IS7_EEEEED2B8ne180100Ev', symObjAddr: 0x3FC0, symBinAddr: 0x10000B618, symSize: 0x30 }
  - { offsetInCU: 0x130D0, offset: 0x3A9D8, size: 0x8, addend: 0x0, symName: '__ZNSt3__110unique_ptrINS_10__function6__funcIZ4mainE3$_0NS_9allocatorIS3_EEFvvEEENS_22__allocator_destructorINS4_IS7_EEEEE5resetB8ne180100EPS7_', symObjAddr: 0x3FF0, symBinAddr: 0x10000B648, symSize: 0x78 }
  - { offsetInCU: 0x13112, offset: 0x3AA1A, size: 0x8, addend: 0x0, symName: '__ZNSt3__117__compressed_pairIPNS_10__function6__funcIZ4mainE3$_0NS_9allocatorIS3_EEFvvEEENS_22__allocator_destructorINS4_IS7_EEEEE6secondB8ne180100Ev', symObjAddr: 0x4068, symBinAddr: 0x10000B6C0, symSize: 0x28 }
  - { offsetInCU: 0x13136, offset: 0x3AA3E, size: 0x8, addend: 0x0, symName: '__ZNSt3__122__allocator_destructorINS_9allocatorINS_10__function6__funcIZ4mainE3$_0NS1_IS4_EEFvvEEEEEEclB8ne180100EPS7_', symObjAddr: 0x4090, symBinAddr: 0x10000B6E8, symSize: 0x34 }
  - { offsetInCU: 0x13168, offset: 0x3AA70, size: 0x8, addend: 0x0, symName: '__ZNSt3__122__compressed_pair_elemINS_22__allocator_destructorINS_9allocatorINS_10__function6__funcIZ4mainE3$_0NS2_IS5_EEFvvEEEEEEELi1ELb0EE5__getB8ne180100Ev', symObjAddr: 0x40C4, symBinAddr: 0x10000B71C, symSize: 0x14 }
  - { offsetInCU: 0x1318C, offset: 0x3AA94, size: 0x8, addend: 0x0, symName: '__ZNSt3__116allocator_traitsINS_9allocatorINS_10__function6__funcIZ4mainE3$_0NS1_IS4_EEFvvEEEEEE10deallocateB8ne180100ERS8_PS7_m', symObjAddr: 0x40D8, symBinAddr: 0x10000B730, symSize: 0x34 }
  - { offsetInCU: 0x131CD, offset: 0x3AAD5, size: 0x8, addend: 0x0, symName: '__ZNSt3__19allocatorINS_10__function6__funcIZ4mainE3$_0NS0_IS3_EEFvvEEEE10deallocateB8ne180100EPS6_m', symObjAddr: 0x410C, symBinAddr: 0x10000B764, symSize: 0x40 }
  - { offsetInCU: 0x1320D, offset: 0x3AB15, size: 0x8, addend: 0x0, symName: '__ZNSt3__110__function6__funcIZ4mainE3$_0NS_9allocatorIS2_EEFvvEEC1B8ne180100ERKS2_RKS4_', symObjAddr: 0x414C, symBinAddr: 0x10000B7A4, symSize: 0x3C }
  - { offsetInCU: 0x13253, offset: 0x3AB5B, size: 0x8, addend: 0x0, symName: '__ZNSt3__110__function6__funcIZ4mainE3$_0NS_9allocatorIS2_EEFvvEEC2B8ne180100ERKS2_RKS4_', symObjAddr: 0x4188, symBinAddr: 0x10000B7E0, symSize: 0x88 }
  - { offsetInCU: 0x13299, offset: 0x3ABA1, size: 0x8, addend: 0x0, symName: '__ZNSt3__110__function12__alloc_funcIZ4mainE3$_0NS_9allocatorIS2_EEFvvEEC1B8ne180100ERKS2_RKS4_', symObjAddr: 0x4210, symBinAddr: 0x10000B868, symSize: 0x3C }
  - { offsetInCU: 0x132DD, offset: 0x3ABE5, size: 0x8, addend: 0x0, symName: '__ZNSt3__110__function12__alloc_funcIZ4mainE3$_0NS_9allocatorIS2_EEFvvEEC2B8ne180100ERKS2_RKS4_', symObjAddr: 0x424C, symBinAddr: 0x10000B8A4, symSize: 0x5C }
  - { offsetInCU: 0x13321, offset: 0x3AC29, size: 0x8, addend: 0x0, symName: '__ZNSt3__117__compressed_pairIZ4mainE3$_0NS_9allocatorIS1_EEEC1B8ne180100IJRKS1_EJRKS3_EEENS_21piecewise_construct_tENS_5tupleIJDpT_EEENSB_IJDpT0_EEE', symObjAddr: 0x42D4, symBinAddr: 0x10000B92C, symSize: 0x3C }
  - { offsetInCU: 0x13389, offset: 0x3AC91, size: 0x8, addend: 0x0, symName: '__ZNSt3__15tupleIJRKNS_9allocatorIZ4mainE3$_0EEEEC1B8ne180100INS_4_AndELi0EEES5_', symObjAddr: 0x4310, symBinAddr: 0x10000B968, symSize: 0x34 }
  - { offsetInCU: 0x133D0, offset: 0x3ACD8, size: 0x8, addend: 0x0, symName: '__ZNSt3__15tupleIJRKNS_9allocatorIZ4mainE3$_0EEEEC2B8ne180100INS_4_AndELi0EEES5_', symObjAddr: 0x4344, symBinAddr: 0x10000B99C, symSize: 0x34 }
  - { offsetInCU: 0x13417, offset: 0x3AD1F, size: 0x8, addend: 0x0, symName: '__ZNSt3__112__tuple_implINS_15__tuple_indicesIJLm0EEEEJRKNS_9allocatorIZ4mainE3$_0EEEEC1B8ne180100IJLm0EEJS7_EJEJEJS7_EEENS1_IJXspT_EEEENS_13__tuple_typesIJDpT0_EEENS1_IJXspT1_EEEENSB_IJDpT2_EEEDpOT3_', symObjAddr: 0x4378, symBinAddr: 0x10000B9D0, symSize: 0x34 }
  - { offsetInCU: 0x134A6, offset: 0x3ADAE, size: 0x8, addend: 0x0, symName: '__ZNSt3__112__tuple_implINS_15__tuple_indicesIJLm0EEEEJRKNS_9allocatorIZ4mainE3$_0EEEEC2B8ne180100IJLm0EEJS7_EJEJEJS7_EEENS1_IJXspT_EEEENS_13__tuple_typesIJDpT0_EEENS1_IJXspT1_EEEENSB_IJDpT2_EEEDpOT3_', symObjAddr: 0x43AC, symBinAddr: 0x10000BA04, symSize: 0x34 }
  - { offsetInCU: 0x13535, offset: 0x3AE3D, size: 0x8, addend: 0x0, symName: '__ZNSt3__112__tuple_leafILm0ERKNS_9allocatorIZ4mainE3$_0EELb0EEC2B8ne180100IS5_vEEOT_', symObjAddr: 0x43E0, symBinAddr: 0x10000BA38, symSize: 0x20 }
  - { offsetInCU: 0x13576, offset: 0x3AE7E, size: 0x8, addend: 0x0, symName: '__ZNSt3__117__compressed_pairIZ4mainE3$_0NS_9allocatorIS1_EEEC2B8ne180100IJRKS1_EJRKS3_EEENS_21piecewise_construct_tENS_5tupleIJDpT_EEENSB_IJDpT0_EEE', symObjAddr: 0x4400, symBinAddr: 0x10000BA58, symSize: 0x54 }
  - { offsetInCU: 0x135DE, offset: 0x3AEE6, size: 0x8, addend: 0x0, symName: '__ZNSt3__122__compressed_pair_elemINS_9allocatorIZ4mainE3$_0EELi1ELb1EEC2B8ne180100IJRKS3_EJLm0EEEENS_21piecewise_construct_tENS_5tupleIJDpT_EEENS_15__tuple_indicesIJXspT0_EEEE', symObjAddr: 0x4454, symBinAddr: 0x10000BAAC, symSize: 0x38 }
  - { offsetInCU: 0x1363F, offset: 0x3AF47, size: 0x8, addend: 0x0, symName: '__ZNSt3__112__tuple_leafILm0ERKNS_9allocatorIZ4mainE3$_0EELb0EE3getB8ne180100Ev', symObjAddr: 0x44B0, symBinAddr: 0x10000BB08, symSize: 0x18 }
  - { offsetInCU: 0x13663, offset: 0x3AF6B, size: 0x8, addend: 0x0, symName: '__ZNSt3__110__function12__alloc_funcIZ4mainE3$_0NS_9allocatorIS2_EEFvvEE7destroyB8ne180100Ev', symObjAddr: 0x44C8, symBinAddr: 0x10000BB20, symSize: 0x10 }
  - { offsetInCU: 0x13687, offset: 0x3AF8F, size: 0x8, addend: 0x0, symName: '__ZNSt3__110__function12__alloc_funcIZ4mainE3$_0NS_9allocatorIS2_EEFvvEEclB8ne180100Ev', symObjAddr: 0x44D8, symBinAddr: 0x10000BB30, symSize: 0x28 }
  - { offsetInCU: 0x136AB, offset: 0x3AFB3, size: 0x8, addend: 0x0, symName: '__ZNSt3__128__invoke_void_return_wrapperIvLb1EE6__callB8ne180100IJRZ4mainE3$_0EEEvDpOT_', symObjAddr: 0x4500, symBinAddr: 0x10000BB58, symSize: 0x24 }
  - { offsetInCU: 0x136D9, offset: 0x3AFE1, size: 0x8, addend: 0x0, symName: '__ZNSt3__117__compressed_pairIZ4mainE3$_0NS_9allocatorIS1_EEE5firstB8ne180100Ev', symObjAddr: 0x4524, symBinAddr: 0x10000BB7C, symSize: 0x24 }
  - { offsetInCU: 0x136FD, offset: 0x3B005, size: 0x8, addend: 0x0, symName: '__ZZ4mainENK3$_0clEv', symObjAddr: 0x456C, symBinAddr: 0x10000BBC4, symSize: 0x28 }
  - { offsetInCU: 0x13725, offset: 0x3B02D, size: 0x8, addend: 0x0, symName: '__ZNSt3__122__compressed_pair_elemIZ4mainE3$_0Li0ELb0EE5__getB8ne180100Ev', symObjAddr: 0x4594, symBinAddr: 0x10000BBEC, symSize: 0x14 }
  - { offsetInCU: 0x1377D, offset: 0x3B085, size: 0x8, addend: 0x0, symName: __ZNKSt9type_infoeqB8ne180100ERKS_, symObjAddr: 0x45A8, symBinAddr: 0x10000BC00, symSize: 0xDC }
  - { offsetInCU: 0x13817, offset: 0x3B11F, size: 0x8, addend: 0x0, symName: __ZNSt27__type_info_implementations30__non_unique_arm_rtti_bit_impl21__is_type_name_uniqueB8ne180100Em, symObjAddr: 0x4684, symBinAddr: 0x10000BCDC, symSize: 0x20 }
  - { offsetInCU: 0x1383B, offset: 0x3B143, size: 0x8, addend: 0x0, symName: __ZNSt3__16vectorI6ButtonNS_9allocatorIS1_EEE21_ConstructTransactionD2B8ne180100Ev, symObjAddr: 0x46A4, symBinAddr: 0x10000BCFC, symSize: 0x20 }
  - { offsetInCU: 0x13863, offset: 0x3B16B, size: 0x8, addend: 0x0, symName: __ZNKSt3__16vectorI6ButtonNS_9allocatorIS1_EEE11__recommendB8ne180100Em, symObjAddr: 0x46C4, symBinAddr: 0x10000BD1C, symSize: 0xB4 }
  - { offsetInCU: 0x138B6, offset: 0x3B1BE, size: 0x8, addend: 0x0, symName: __ZNKSt3__16vectorI6ButtonNS_9allocatorIS1_EEE4sizeB8ne180100Ev, symObjAddr: 0x4778, symBinAddr: 0x10000BDD0, symSize: 0x28 }
  - { offsetInCU: 0x138DA, offset: 0x3B1E2, size: 0x8, addend: 0x0, symName: __ZNSt3__114__split_bufferI6ButtonRNS_9allocatorIS1_EEEC1EmmS4_, symObjAddr: 0x47A0, symBinAddr: 0x10000BDF8, symSize: 0x44 }
  - { offsetInCU: 0x1392E, offset: 0x3B236, size: 0x8, addend: 0x0, symName: __ZNSt3__114__split_bufferI6ButtonRNS_9allocatorIS1_EEED1Ev, symObjAddr: 0x48F4, symBinAddr: 0x10000BF4C, symSize: 0x2C }
  - { offsetInCU: 0x13958, offset: 0x3B260, size: 0x8, addend: 0x0, symName: __ZNKSt3__16vectorI6ButtonNS_9allocatorIS1_EEE8max_sizeEv, symObjAddr: 0x4920, symBinAddr: 0x10000BF78, symSize: 0x60 }
  - { offsetInCU: 0x1397E, offset: 0x3B286, size: 0x8, addend: 0x0, symName: __ZNKSt3__16vectorI6ButtonNS_9allocatorIS1_EEE20__throw_length_errorB8ne180100Ev, symObjAddr: 0x4980, symBinAddr: 0x10000BFD8, symSize: 0x1C }
  - { offsetInCU: 0x139AC, offset: 0x3B2B4, size: 0x8, addend: 0x0, symName: __ZNSt3__116allocator_traitsINS_9allocatorI6ButtonEEE8max_sizeB8ne180100IS3_vEEmRKS3_, symObjAddr: 0x49F4, symBinAddr: 0x10000BFF4, symSize: 0x24 }
  - { offsetInCU: 0x139D9, offset: 0x3B2E1, size: 0x8, addend: 0x0, symName: __ZNKSt3__16vectorI6ButtonNS_9allocatorIS1_EEE7__allocB8ne180100Ev, symObjAddr: 0x4A18, symBinAddr: 0x10000C018, symSize: 0x28 }
  - { offsetInCU: 0x139FD, offset: 0x3B305, size: 0x8, addend: 0x0, symName: __ZNKSt3__19allocatorI6ButtonE8max_sizeB8ne180100Ev, symObjAddr: 0x4ADC, symBinAddr: 0x10000C040, symSize: 0x14 }
  - { offsetInCU: 0x13A21, offset: 0x3B329, size: 0x8, addend: 0x0, symName: __ZNKSt3__117__compressed_pairIP6ButtonNS_9allocatorIS1_EEE6secondB8ne180100Ev, symObjAddr: 0x4AF0, symBinAddr: 0x10000C054, symSize: 0x24 }
  - { offsetInCU: 0x13A45, offset: 0x3B34D, size: 0x8, addend: 0x0, symName: __ZNKSt3__122__compressed_pair_elemINS_9allocatorI6ButtonEELi1ELb1EE5__getB8ne180100Ev, symObjAddr: 0x4B14, symBinAddr: 0x10000C078, symSize: 0x14 }
  - { offsetInCU: 0x13A69, offset: 0x3B371, size: 0x8, addend: 0x0, symName: __ZNSt3__114__split_bufferI6ButtonRNS_9allocatorIS1_EEEC2EmmS4_, symObjAddr: 0x4C68, symBinAddr: 0x10000C08C, symSize: 0xD4 }
  - { offsetInCU: 0x13ADA, offset: 0x3B3E2, size: 0x8, addend: 0x0, symName: __ZNSt3__117__compressed_pairIP6ButtonRNS_9allocatorIS1_EEEC1B8ne180100IDnS5_EEOT_OT0_, symObjAddr: 0x4D3C, symBinAddr: 0x10000C160, symSize: 0x3C }
  - { offsetInCU: 0x13B30, offset: 0x3B438, size: 0x8, addend: 0x0, symName: __ZNSt3__114__split_bufferI6ButtonRNS_9allocatorIS1_EEE7__allocB8ne180100Ev, symObjAddr: 0x4DB8, symBinAddr: 0x10000C1DC, symSize: 0x28 }
  - { offsetInCU: 0x13B54, offset: 0x3B45C, size: 0x8, addend: 0x0, symName: __ZNSt3__114__split_bufferI6ButtonRNS_9allocatorIS1_EEE9__end_capB8ne180100Ev, symObjAddr: 0x4DE0, symBinAddr: 0x10000C204, symSize: 0x28 }
  - { offsetInCU: 0x13B78, offset: 0x3B480, size: 0x8, addend: 0x0, symName: __ZNSt3__117__compressed_pairIP6ButtonRNS_9allocatorIS1_EEEC2B8ne180100IDnS5_EEOT_OT0_, symObjAddr: 0x4E08, symBinAddr: 0x10000C22C, symSize: 0x48 }
  - { offsetInCU: 0x13BCE, offset: 0x3B4D6, size: 0x8, addend: 0x0, symName: __ZNSt3__122__compressed_pair_elemIRNS_9allocatorI6ButtonEELi1ELb0EEC2B8ne180100IS4_vEEOT_, symObjAddr: 0x4E50, symBinAddr: 0x10000C274, symSize: 0x20 }
  - { offsetInCU: 0x13C0E, offset: 0x3B516, size: 0x8, addend: 0x0, symName: __ZNSt3__19allocatorI6ButtonE8allocateB8ne180100Em, symObjAddr: 0x4E70, symBinAddr: 0x10000C294, symSize: 0x58 }
  - { offsetInCU: 0x13C40, offset: 0x3B548, size: 0x8, addend: 0x0, symName: __ZNSt3__117__compressed_pairIP6ButtonRNS_9allocatorIS1_EEE6secondB8ne180100Ev, symObjAddr: 0x4EC8, symBinAddr: 0x10000C2EC, symSize: 0x28 }
  - { offsetInCU: 0x13C64, offset: 0x3B56C, size: 0x8, addend: 0x0, symName: __ZNSt3__122__compressed_pair_elemIRNS_9allocatorI6ButtonEELi1ELb0EE5__getB8ne180100Ev, symObjAddr: 0x4EF0, symBinAddr: 0x10000C314, symSize: 0x18 }
  - { offsetInCU: 0x13C88, offset: 0x3B590, size: 0x8, addend: 0x0, symName: __ZNSt3__117__compressed_pairIP6ButtonRNS_9allocatorIS1_EEE5firstB8ne180100Ev, symObjAddr: 0x4F08, symBinAddr: 0x10000C32C, symSize: 0x24 }
  - { offsetInCU: 0x13CAC, offset: 0x3B5B4, size: 0x8, addend: 0x0, symName: __ZNSt3__116reverse_iteratorIP6ButtonEC1B8ne180100ES2_, symObjAddr: 0x5058, symBinAddr: 0x10000C47C, symSize: 0x34 }
  - { offsetInCU: 0x13CE2, offset: 0x3B5EA, size: 0x8, addend: 0x0, symName: __ZNKSt3__116reverse_iteratorIP6ButtonE4baseB8ne180100Ev, symObjAddr: 0x508C, symBinAddr: 0x10000C4B0, symSize: 0x18 }
  - { offsetInCU: 0x13D06, offset: 0x3B60E, size: 0x8, addend: 0x0, symName: __ZNKSt3__16vectorI6ButtonNS_9allocatorIS1_EEE14__annotate_newB8ne180100Em, symObjAddr: 0x50E0, symBinAddr: 0x10000C504, symSize: 0x14 }
  - { offsetInCU: 0x13D39, offset: 0x3B641, size: 0x8, addend: 0x0, symName: __ZNSt3__129_AllocatorDestroyRangeReverseINS_9allocatorI6ButtonEENS_16reverse_iteratorIPS2_EEEC1B8ne180100ERS3_RS6_S9_, symObjAddr: 0x5140, symBinAddr: 0x10000C564, symSize: 0x44 }
  - { offsetInCU: 0x13D93, offset: 0x3B69B, size: 0x8, addend: 0x0, symName: __ZNSt3__116allocator_traitsINS_9allocatorI6ButtonEEE9constructB8ne180100IS2_JS2_EvEEvRS3_PT_DpOT0_, symObjAddr: 0x51CC, symBinAddr: 0x10000C5F0, symSize: 0x34 }
  - { offsetInCU: 0x13DE9, offset: 0x3B6F1, size: 0x8, addend: 0x0, symName: __ZNKSt3__116reverse_iteratorIP6ButtonEdeB8ne180100Ev, symObjAddr: 0x5224, symBinAddr: 0x10000C648, symSize: 0x28 }
  - { offsetInCU: 0x13E1B, offset: 0x3B723, size: 0x8, addend: 0x0, symName: __ZNSt3__116reverse_iteratorIP6ButtonEppB8ne180100Ev, symObjAddr: 0x524C, symBinAddr: 0x10000C670, symSize: 0x20 }
  - { offsetInCU: 0x13E3F, offset: 0x3B747, size: 0x8, addend: 0x0, symName: __ZNSt3__128__exception_guard_exceptionsINS_29_AllocatorDestroyRangeReverseINS_9allocatorI6ButtonEENS_16reverse_iteratorIPS3_EEEEE10__completeB8ne180100Ev, symObjAddr: 0x526C, symBinAddr: 0x10000C690, symSize: 0x1C }
  - { offsetInCU: 0x13E63, offset: 0x3B76B, size: 0x8, addend: 0x0, symName: __ZNSt3__128__exception_guard_exceptionsINS_29_AllocatorDestroyRangeReverseINS_9allocatorI6ButtonEENS_16reverse_iteratorIPS3_EEEEED1B8ne180100Ev, symObjAddr: 0x5288, symBinAddr: 0x10000C6AC, symSize: 0x2C }
  - { offsetInCU: 0x13E8B, offset: 0x3B793, size: 0x8, addend: 0x0, symName: __ZNSt3__128__exception_guard_exceptionsINS_29_AllocatorDestroyRangeReverseINS_9allocatorI6ButtonEENS_16reverse_iteratorIPS3_EEEEEC1B8ne180100ES8_, symObjAddr: 0x52B4, symBinAddr: 0x10000C6D8, symSize: 0x34 }
  - { offsetInCU: 0x13EC2, offset: 0x3B7CA, size: 0x8, addend: 0x0, symName: __ZNSt3__128__exception_guard_exceptionsINS_29_AllocatorDestroyRangeReverseINS_9allocatorI6ButtonEENS_16reverse_iteratorIPS3_EEEEEC2B8ne180100ES8_, symObjAddr: 0x52E8, symBinAddr: 0x10000C70C, symSize: 0x30 }
  - { offsetInCU: 0x13EF9, offset: 0x3B801, size: 0x8, addend: 0x0, symName: __ZNSt3__129_AllocatorDestroyRangeReverseINS_9allocatorI6ButtonEENS_16reverse_iteratorIPS2_EEEC2B8ne180100ERS3_RS6_S9_, symObjAddr: 0x5318, symBinAddr: 0x10000C73C, symSize: 0x38 }
  - { offsetInCU: 0x13F4E, offset: 0x3B856, size: 0x8, addend: 0x0, symName: __ZNSt3__19allocatorI6ButtonE9constructB8ne180100IS1_JS1_EEEvPT_DpOT0_, symObjAddr: 0x5350, symBinAddr: 0x10000C774, symSize: 0x30 }
  - { offsetInCU: 0x13FA2, offset: 0x3B8AA, size: 0x8, addend: 0x0, symName: __ZN6ButtonC1EOS_, symObjAddr: 0x5380, symBinAddr: 0x10000C7A4, symSize: 0x34 }
  - { offsetInCU: 0x13FD5, offset: 0x3B8DD, size: 0x8, addend: 0x0, symName: __ZN6ButtonC2EOS_, symObjAddr: 0x53B4, symBinAddr: 0x10000C7D8, symSize: 0x5C }
  - { offsetInCU: 0x14008, offset: 0x3B910, size: 0x8, addend: 0x0, symName: __ZNSt3__18functionIFvvEEC1EOS2_, symObjAddr: 0x5410, symBinAddr: 0x10000C834, symSize: 0x34 }
  - { offsetInCU: 0x14041, offset: 0x3B949, size: 0x8, addend: 0x0, symName: __ZNSt3__18functionIFvvEEC2EOS2_, symObjAddr: 0x5444, symBinAddr: 0x10000C868, symSize: 0x34 }
  - { offsetInCU: 0x1407A, offset: 0x3B982, size: 0x8, addend: 0x0, symName: __ZNSt3__110__function12__value_funcIFvvEEC1B8ne180100EOS3_, symObjAddr: 0x5478, symBinAddr: 0x10000C89C, symSize: 0x34 }
  - { offsetInCU: 0x140B1, offset: 0x3B9B9, size: 0x8, addend: 0x0, symName: __ZNSt3__110__function12__value_funcIFvvEEC2B8ne180100EOS3_, symObjAddr: 0x54AC, symBinAddr: 0x10000C8D0, symSize: 0xD0 }
  - { offsetInCU: 0x140ED, offset: 0x3B9F5, size: 0x8, addend: 0x0, symName: __ZNSt3__119__to_address_helperINS_16reverse_iteratorIP6ButtonEEvE6__callB8ne180100ERKS4_, symObjAddr: 0x5590, symBinAddr: 0x10000C9A0, symSize: 0x38 }
  - { offsetInCU: 0x1410F, offset: 0x3BA17, size: 0x8, addend: 0x0, symName: __ZNKSt3__116reverse_iteratorIP6ButtonEptB8ne180100Ev, symObjAddr: 0x55C8, symBinAddr: 0x10000C9D8, symSize: 0x24 }
  - { offsetInCU: 0x14133, offset: 0x3BA3B, size: 0x8, addend: 0x0, symName: __ZNSt3__128__exception_guard_exceptionsINS_29_AllocatorDestroyRangeReverseINS_9allocatorI6ButtonEENS_16reverse_iteratorIPS3_EEEEED2B8ne180100Ev, symObjAddr: 0x55EC, symBinAddr: 0x10000C9FC, symSize: 0x50 }
  - { offsetInCU: 0x1415B, offset: 0x3BA63, size: 0x8, addend: 0x0, symName: __ZNKSt3__129_AllocatorDestroyRangeReverseINS_9allocatorI6ButtonEENS_16reverse_iteratorIPS2_EEEclB8ne180100Ev, symObjAddr: 0x563C, symBinAddr: 0x10000CA4C, symSize: 0xB4 }
  - { offsetInCU: 0x14180, offset: 0x3BA88, size: 0x8, addend: 0x0, symName: __ZNSt3__116reverse_iteratorINS0_IP6ButtonEEEC1B8ne180100ES3_, symObjAddr: 0x5760, symBinAddr: 0x10000CB70, symSize: 0x3C }
  - { offsetInCU: 0x141B6, offset: 0x3BABE, size: 0x8, addend: 0x0, symName: __ZNSt3__116reverse_iteratorINS0_IP6ButtonEEEppB8ne180100Ev, symObjAddr: 0x5820, symBinAddr: 0x10000CC30, symSize: 0x30 }
  - { offsetInCU: 0x141DA, offset: 0x3BAE2, size: 0x8, addend: 0x0, symName: __ZNKSt3__116reverse_iteratorINS0_IP6ButtonEEE4baseB8ne180100Ev, symObjAddr: 0x5850, symBinAddr: 0x10000CC60, symSize: 0x24 }
  - { offsetInCU: 0x14203, offset: 0x3BB0B, size: 0x8, addend: 0x0, symName: __ZNSt3__119__to_address_helperINS_16reverse_iteratorINS1_IP6ButtonEEEEvE6__callB8ne180100ERKS5_, symObjAddr: 0x5874, symBinAddr: 0x10000CC84, symSize: 0x38 }
  - { offsetInCU: 0x14225, offset: 0x3BB2D, size: 0x8, addend: 0x0, symName: __ZNKSt3__116reverse_iteratorINS0_IP6ButtonEEEptB8ne180100Ev, symObjAddr: 0x58AC, symBinAddr: 0x10000CCBC, symSize: 0x24 }
  - { offsetInCU: 0x14249, offset: 0x3BB51, size: 0x8, addend: 0x0, symName: __ZNKSt3__116reverse_iteratorINS0_IP6ButtonEEEdeB8ne180100Ev, symObjAddr: 0x58D0, symBinAddr: 0x10000CCE0, symSize: 0x34 }
  - { offsetInCU: 0x1427B, offset: 0x3BB83, size: 0x8, addend: 0x0, symName: __ZNSt3__116reverse_iteratorIP6ButtonEmmB8ne180100Ev, symObjAddr: 0x5904, symBinAddr: 0x10000CD14, symSize: 0x20 }
  - { offsetInCU: 0x1429F, offset: 0x3BBA7, size: 0x8, addend: 0x0, symName: __ZNSt3__116reverse_iteratorINS0_IP6ButtonEEEC2B8ne180100ES3_, symObjAddr: 0x5924, symBinAddr: 0x10000CD34, symSize: 0x2C }
  - { offsetInCU: 0x142D5, offset: 0x3BBDD, size: 0x8, addend: 0x0, symName: __ZNSt3__116reverse_iteratorIP6ButtonEC2B8ne180100ES2_, symObjAddr: 0x5950, symBinAddr: 0x10000CD60, symSize: 0x28 }
  - { offsetInCU: 0x1430B, offset: 0x3BC13, size: 0x8, addend: 0x0, symName: __ZNSt3__114__split_bufferI6ButtonRNS_9allocatorIS1_EEED2Ev, symObjAddr: 0x5978, symBinAddr: 0x10000CD88, symSize: 0x8C }
  - { offsetInCU: 0x14335, offset: 0x3BC3D, size: 0x8, addend: 0x0, symName: __ZNSt3__114__split_bufferI6ButtonRNS_9allocatorIS1_EEE5clearB8ne180100Ev, symObjAddr: 0x5A04, symBinAddr: 0x10000CE14, symSize: 0x28 }
  - { offsetInCU: 0x14359, offset: 0x3BC61, size: 0x8, addend: 0x0, symName: __ZNKSt3__114__split_bufferI6ButtonRNS_9allocatorIS1_EEE8capacityB8ne180100Ev, symObjAddr: 0x5A2C, symBinAddr: 0x10000CE3C, symSize: 0x40 }
  - { offsetInCU: 0x1437D, offset: 0x3BC85, size: 0x8, addend: 0x0, symName: __ZNSt3__114__split_bufferI6ButtonRNS_9allocatorIS1_EEE17__destruct_at_endB8ne180100EPS1_, symObjAddr: 0x5A6C, symBinAddr: 0x10000CE7C, symSize: 0x2C }
  - { offsetInCU: 0x143AF, offset: 0x3BCB7, size: 0x8, addend: 0x0, symName: __ZNSt3__114__split_bufferI6ButtonRNS_9allocatorIS1_EEE17__destruct_at_endB8ne180100EPS1_NS_17integral_constantIbLb0EEE, symObjAddr: 0x5A98, symBinAddr: 0x10000CEA8, symSize: 0x80 }
  - { offsetInCU: 0x143ED, offset: 0x3BCF5, size: 0x8, addend: 0x0, symName: __ZNKSt3__114__split_bufferI6ButtonRNS_9allocatorIS1_EEE9__end_capB8ne180100Ev, symObjAddr: 0x5B18, symBinAddr: 0x10000CF28, symSize: 0x28 }
  - { offsetInCU: 0x14411, offset: 0x3BD19, size: 0x8, addend: 0x0, symName: __ZNKSt3__117__compressed_pairIP6ButtonRNS_9allocatorIS1_EEE5firstB8ne180100Ev, symObjAddr: 0x5B40, symBinAddr: 0x10000CF50, symSize: 0x24 }
  - { offsetInCU: 0x14435, offset: 0x3BD3D, size: 0x8, addend: 0x0, symName: '__ZNSt3__16vectorI6ButtonNS_9allocatorIS1_EEE22__construct_one_at_endB8ne180100IJRP8GameTextiiii9SDL_ColorZ4mainE3$_1EEEvDpOT_', symObjAddr: 0x5B64, symBinAddr: 0x10000CF74, symSize: 0xC8 }
  - { offsetInCU: 0x144FB, offset: 0x3BE03, size: 0x8, addend: 0x0, symName: '__ZNSt3__16vectorI6ButtonNS_9allocatorIS1_EEE24__emplace_back_slow_pathIJRP8GameTextiiii9SDL_ColorZ4mainE3$_1EEEPS1_DpOT_', symObjAddr: 0x5C2C, symBinAddr: 0x10000D03C, symSize: 0x120 }
  - { offsetInCU: 0x145D3, offset: 0x3BEDB, size: 0x8, addend: 0x0, symName: '__ZNSt3__116allocator_traitsINS_9allocatorI6ButtonEEE9constructB8ne180100IS2_JRP8GameTextiiii9SDL_ColorZ4mainE3$_1EvEEvRS3_PT_DpOT0_', symObjAddr: 0x5D4C, symBinAddr: 0x10000D15C, symSize: 0x70 }
  - { offsetInCU: 0x146A1, offset: 0x3BFA9, size: 0x8, addend: 0x0, symName: '__ZNSt3__19allocatorI6ButtonE9constructB8ne180100IS1_JRP8GameTextiiii9SDL_ColorZ4mainE3$_1EEEvPT_DpOT0_', symObjAddr: 0x5DBC, symBinAddr: 0x10000D1CC, symSize: 0x138 }
  - { offsetInCU: 0x1476D, offset: 0x3C075, size: 0x8, addend: 0x0, symName: '__ZNSt3__18functionIFvvEEC1IZ4mainE3$_1vEET_', symObjAddr: 0x5EF4, symBinAddr: 0x10000D304, symSize: 0x34 }
  - { offsetInCU: 0x147B0, offset: 0x3C0B8, size: 0x8, addend: 0x0, symName: '__ZNSt3__18functionIFvvEEC2IZ4mainE3$_1vEET_', symObjAddr: 0x5F28, symBinAddr: 0x10000D338, symSize: 0x38 }
  - { offsetInCU: 0x147F3, offset: 0x3C0FB, size: 0x8, addend: 0x0, symName: '__ZNSt3__110__function12__value_funcIFvvEEC1B8ne180100IZ4mainE3$_1Li0EEEOT_', symObjAddr: 0x5F60, symBinAddr: 0x10000D370, symSize: 0x50 }
  - { offsetInCU: 0x14839, offset: 0x3C141, size: 0x8, addend: 0x0, symName: '__ZNSt3__19allocatorIZ4mainE3$_1EC1B8ne180100Ev', symObjAddr: 0x5FB0, symBinAddr: 0x10000D3C0, symSize: 0x2C }
  - { offsetInCU: 0x14861, offset: 0x3C169, size: 0x8, addend: 0x0, symName: '__ZNSt3__110__function12__value_funcIFvvEEC1B8ne180100IZ4mainE3$_1NS_9allocatorIS5_EEEEOT_RKT0_', symObjAddr: 0x5FDC, symBinAddr: 0x10000D3EC, symSize: 0x3C }
  - { offsetInCU: 0x148B9, offset: 0x3C1C1, size: 0x8, addend: 0x0, symName: '__ZNSt3__19allocatorIZ4mainE3$_1EC2B8ne180100Ev', symObjAddr: 0x6018, symBinAddr: 0x10000D428, symSize: 0x2C }
  - { offsetInCU: 0x148E1, offset: 0x3C1E9, size: 0x8, addend: 0x0, symName: '__ZNSt3__116__non_trivial_ifILb1ENS_9allocatorIZ4mainE3$_1EEEC2B8ne180100Ev', symObjAddr: 0x6044, symBinAddr: 0x10000D454, symSize: 0x14 }
  - { offsetInCU: 0x14909, offset: 0x3C211, size: 0x8, addend: 0x0, symName: '__ZNSt3__110__function12__value_funcIFvvEEC2B8ne180100IZ4mainE3$_1NS_9allocatorIS5_EEEEOT_RKT0_', symObjAddr: 0x6058, symBinAddr: 0x10000D468, symSize: 0x94 }
  - { offsetInCU: 0x149AD, offset: 0x3C2B5, size: 0x8, addend: 0x0, symName: '__ZNSt3__19allocatorINS_10__function6__funcIZ4mainE3$_1NS0_IS3_EEFvvEEEEC1B8ne180100IS3_EERKNS0_IT_EE', symObjAddr: 0x6104, symBinAddr: 0x10000D514, symSize: 0x34 }
  - { offsetInCU: 0x149ED, offset: 0x3C2F5, size: 0x8, addend: 0x0, symName: '__ZNSt3__19allocatorIZ4mainE3$_1EC1B8ne180100INS_10__function6__funcIS1_S2_FvvEEEEERKNS0_IT_EE', symObjAddr: 0x6138, symBinAddr: 0x10000D548, symSize: 0x34 }
  - { offsetInCU: 0x14A28, offset: 0x3C330, size: 0x8, addend: 0x0, symName: '__ZNSt3__110__function6__funcIZ4mainE3$_1NS_9allocatorIS2_EEFvvEEC1B8ne180100EOS2_OS4_', symObjAddr: 0x616C, symBinAddr: 0x10000D57C, symSize: 0x3C }
  - { offsetInCU: 0x14A6E, offset: 0x3C376, size: 0x8, addend: 0x0, symName: '__ZNSt3__19allocatorINS_10__function6__funcIZ4mainE3$_1NS0_IS3_EEFvvEEEEC2B8ne180100IS3_EERKNS0_IT_EE', symObjAddr: 0x61A8, symBinAddr: 0x10000D5B8, symSize: 0x30 }
  - { offsetInCU: 0x14AA9, offset: 0x3C3B1, size: 0x8, addend: 0x0, symName: '__ZNSt3__116__non_trivial_ifILb1ENS_9allocatorINS_10__function6__funcIZ4mainE3$_1NS1_IS4_EEFvvEEEEEEC2B8ne180100Ev', symObjAddr: 0x61D8, symBinAddr: 0x10000D5E8, symSize: 0x14 }
  - { offsetInCU: 0x14AD1, offset: 0x3C3D9, size: 0x8, addend: 0x0, symName: '__ZNSt3__19allocatorIZ4mainE3$_1EC2B8ne180100INS_10__function6__funcIS1_S2_FvvEEEEERKNS0_IT_EE', symObjAddr: 0x61EC, symBinAddr: 0x10000D5FC, symSize: 0x30 }
  - { offsetInCU: 0x14B0C, offset: 0x3C414, size: 0x8, addend: 0x0, symName: '__ZNSt3__110__function6__funcIZ4mainE3$_1NS_9allocatorIS2_EEFvvEEC2B8ne180100EOS2_OS4_', symObjAddr: 0x621C, symBinAddr: 0x10000D62C, symSize: 0x88 }
  - { offsetInCU: 0x14B52, offset: 0x3C45A, size: 0x8, addend: 0x0, symName: '__ZNSt3__110__function12__alloc_funcIZ4mainE3$_1NS_9allocatorIS2_EEFvvEEC1B8ne180100EOS2_OS4_', symObjAddr: 0x62A4, symBinAddr: 0x10000D6B4, symSize: 0x3C }
  - { offsetInCU: 0x14B96, offset: 0x3C49E, size: 0x8, addend: 0x0, symName: '__ZNSt3__110__function6__funcIZ4mainE3$_1NS_9allocatorIS2_EEFvvEED1Ev', symObjAddr: 0x62E0, symBinAddr: 0x10000D6F0, symSize: 0x2C }
  - { offsetInCU: 0x14BC0, offset: 0x3C4C8, size: 0x8, addend: 0x0, symName: '__ZNSt3__110__function6__funcIZ4mainE3$_1NS_9allocatorIS2_EEFvvEED0Ev', symObjAddr: 0x630C, symBinAddr: 0x10000D71C, symSize: 0x30 }
  - { offsetInCU: 0x14BEA, offset: 0x3C4F2, size: 0x8, addend: 0x0, symName: '__ZNKSt3__110__function6__funcIZ4mainE3$_1NS_9allocatorIS2_EEFvvEE7__cloneEv', symObjAddr: 0x633C, symBinAddr: 0x10000D74C, symSize: 0xFC }
  - { offsetInCU: 0x14C3A, offset: 0x3C542, size: 0x8, addend: 0x0, symName: '__ZNKSt3__110__function6__funcIZ4mainE3$_1NS_9allocatorIS2_EEFvvEE7__cloneEPNS0_6__baseIS5_EE', symObjAddr: 0x6438, symBinAddr: 0x10000D848, symSize: 0x58 }
  - { offsetInCU: 0x14C6F, offset: 0x3C577, size: 0x8, addend: 0x0, symName: '__ZNSt3__110__function6__funcIZ4mainE3$_1NS_9allocatorIS2_EEFvvEE7destroyEv', symObjAddr: 0x6490, symBinAddr: 0x10000D8A0, symSize: 0x28 }
  - { offsetInCU: 0x14C95, offset: 0x3C59D, size: 0x8, addend: 0x0, symName: '__ZNSt3__110__function6__funcIZ4mainE3$_1NS_9allocatorIS2_EEFvvEE18destroy_deallocateEv', symObjAddr: 0x64B8, symBinAddr: 0x10000D8C8, symSize: 0x58 }
  - { offsetInCU: 0x14CD6, offset: 0x3C5DE, size: 0x8, addend: 0x0, symName: '__ZNSt3__110__function6__funcIZ4mainE3$_1NS_9allocatorIS2_EEFvvEEclEv', symObjAddr: 0x6510, symBinAddr: 0x10000D920, symSize: 0x28 }
  - { offsetInCU: 0x14CFC, offset: 0x3C604, size: 0x8, addend: 0x0, symName: '__ZNKSt3__110__function6__funcIZ4mainE3$_1NS_9allocatorIS2_EEFvvEE6targetERKSt9type_info', symObjAddr: 0x6538, symBinAddr: 0x10000D948, symSize: 0x60 }
  - { offsetInCU: 0x14D31, offset: 0x3C639, size: 0x8, addend: 0x0, symName: '__ZNKSt3__110__function6__funcIZ4mainE3$_1NS_9allocatorIS2_EEFvvEE11target_typeEv', symObjAddr: 0x6598, symBinAddr: 0x10000D9A8, symSize: 0x18 }
  - { offsetInCU: 0x14D57, offset: 0x3C65F, size: 0x8, addend: 0x0, symName: '__ZNSt3__110__function12__alloc_funcIZ4mainE3$_1NS_9allocatorIS2_EEFvvEEC2B8ne180100EOS2_OS4_', symObjAddr: 0x65B0, symBinAddr: 0x10000D9C0, symSize: 0x5C }
  - { offsetInCU: 0x14D9B, offset: 0x3C6A3, size: 0x8, addend: 0x0, symName: '__ZNSt3__117__compressed_pairIZ4mainE3$_1NS_9allocatorIS1_EEEC1B8ne180100IJOS1_EJOS3_EEENS_21piecewise_construct_tENS_5tupleIJDpT_EEENS9_IJDpT0_EEE', symObjAddr: 0x6664, symBinAddr: 0x10000DA74, symSize: 0x3C }
  - { offsetInCU: 0x14E03, offset: 0x3C70B, size: 0x8, addend: 0x0, symName: '__ZNSt3__15tupleIJOZ4mainE3$_1EEC1B8ne180100IJS1_ELi0EEEDpOT_', symObjAddr: 0x66A0, symBinAddr: 0x10000DAB0, symSize: 0x34 }
  - { offsetInCU: 0x14E4B, offset: 0x3C753, size: 0x8, addend: 0x0, symName: '__ZNSt3__15tupleIJOZ4mainE3$_1EEC2B8ne180100IJS1_ELi0EEEDpOT_', symObjAddr: 0x66D4, symBinAddr: 0x10000DAE4, symSize: 0x34 }
  - { offsetInCU: 0x14E93, offset: 0x3C79B, size: 0x8, addend: 0x0, symName: '__ZNSt3__112__tuple_implINS_15__tuple_indicesIJLm0EEEEJOZ4mainE3$_1EEC1B8ne180100IJLm0EEJS4_EJEJEJS3_EEENS1_IJXspT_EEEENS_13__tuple_typesIJDpT0_EEENS1_IJXspT1_EEEENS8_IJDpT2_EEEDpOT3_', symObjAddr: 0x6708, symBinAddr: 0x10000DB18, symSize: 0x34 }
  - { offsetInCU: 0x14F22, offset: 0x3C82A, size: 0x8, addend: 0x0, symName: '__ZNSt3__112__tuple_implINS_15__tuple_indicesIJLm0EEEEJOZ4mainE3$_1EEC2B8ne180100IJLm0EEJS4_EJEJEJS3_EEENS1_IJXspT_EEEENS_13__tuple_typesIJDpT0_EEENS1_IJXspT1_EEEENS8_IJDpT2_EEEDpOT3_', symObjAddr: 0x673C, symBinAddr: 0x10000DB4C, symSize: 0x34 }
  - { offsetInCU: 0x14FB1, offset: 0x3C8B9, size: 0x8, addend: 0x0, symName: '__ZNSt3__112__tuple_leafILm0EOZ4mainE3$_1Lb0EEC2B8ne180100IS1_vEEOT_', symObjAddr: 0x6770, symBinAddr: 0x10000DB80, symSize: 0x20 }
  - { offsetInCU: 0x14FF2, offset: 0x3C8FA, size: 0x8, addend: 0x0, symName: '__ZNSt3__15tupleIJONS_9allocatorIZ4mainE3$_1EEEEC1B8ne180100IJS3_ELi0EEEDpOT_', symObjAddr: 0x6790, symBinAddr: 0x10000DBA0, symSize: 0x34 }
  - { offsetInCU: 0x1503A, offset: 0x3C942, size: 0x8, addend: 0x0, symName: '__ZNSt3__15tupleIJONS_9allocatorIZ4mainE3$_1EEEEC2B8ne180100IJS3_ELi0EEEDpOT_', symObjAddr: 0x67C4, symBinAddr: 0x10000DBD4, symSize: 0x34 }
  - { offsetInCU: 0x15082, offset: 0x3C98A, size: 0x8, addend: 0x0, symName: '__ZNSt3__112__tuple_implINS_15__tuple_indicesIJLm0EEEEJONS_9allocatorIZ4mainE3$_1EEEEC1B8ne180100IJLm0EEJS6_EJEJEJS5_EEENS1_IJXspT_EEEENS_13__tuple_typesIJDpT0_EEENS1_IJXspT1_EEEENSA_IJDpT2_EEEDpOT3_', symObjAddr: 0x67F8, symBinAddr: 0x10000DC08, symSize: 0x34 }
  - { offsetInCU: 0x15111, offset: 0x3CA19, size: 0x8, addend: 0x0, symName: '__ZNSt3__112__tuple_implINS_15__tuple_indicesIJLm0EEEEJONS_9allocatorIZ4mainE3$_1EEEEC2B8ne180100IJLm0EEJS6_EJEJEJS5_EEENS1_IJXspT_EEEENS_13__tuple_typesIJDpT0_EEENS1_IJXspT1_EEEENSA_IJDpT2_EEEDpOT3_', symObjAddr: 0x682C, symBinAddr: 0x10000DC3C, symSize: 0x34 }
  - { offsetInCU: 0x151A0, offset: 0x3CAA8, size: 0x8, addend: 0x0, symName: '__ZNSt3__112__tuple_leafILm0EONS_9allocatorIZ4mainE3$_1EELb0EEC2B8ne180100IS3_vEEOT_', symObjAddr: 0x6860, symBinAddr: 0x10000DC70, symSize: 0x20 }
  - { offsetInCU: 0x151E1, offset: 0x3CAE9, size: 0x8, addend: 0x0, symName: '__ZNSt3__117__compressed_pairIZ4mainE3$_1NS_9allocatorIS1_EEEC2B8ne180100IJOS1_EJOS3_EEENS_21piecewise_construct_tENS_5tupleIJDpT_EEENS9_IJDpT0_EEE', symObjAddr: 0x6880, symBinAddr: 0x10000DC90, symSize: 0x54 }
  - { offsetInCU: 0x15249, offset: 0x3CB51, size: 0x8, addend: 0x0, symName: '__ZNSt3__122__compressed_pair_elemIZ4mainE3$_1Li0ELb0EEC2B8ne180100IJOS1_EJLm0EEEENS_21piecewise_construct_tENS_5tupleIJDpT_EEENS_15__tuple_indicesIJXspT0_EEEE', symObjAddr: 0x68D4, symBinAddr: 0x10000DCE4, symSize: 0x44 }
  - { offsetInCU: 0x152AA, offset: 0x3CBB2, size: 0x8, addend: 0x0, symName: '__ZNSt3__122__compressed_pair_elemINS_9allocatorIZ4mainE3$_1EELi1ELb1EEC2B8ne180100IJOS3_EJLm0EEEENS_21piecewise_construct_tENS_5tupleIJDpT_EEENS_15__tuple_indicesIJXspT0_EEEE', symObjAddr: 0x6918, symBinAddr: 0x10000DD28, symSize: 0x38 }
  - { offsetInCU: 0x1530B, offset: 0x3CC13, size: 0x8, addend: 0x0, symName: '__ZNSt3__112__tuple_leafILm0EOZ4mainE3$_1Lb0EE3getB8ne180100Ev', symObjAddr: 0x6974, symBinAddr: 0x10000DD84, symSize: 0x18 }
  - { offsetInCU: 0x1532F, offset: 0x3CC37, size: 0x8, addend: 0x0, symName: '__ZNSt3__112__tuple_leafILm0EONS_9allocatorIZ4mainE3$_1EELb0EE3getB8ne180100Ev', symObjAddr: 0x69B0, symBinAddr: 0x10000DDC0, symSize: 0x18 }
  - { offsetInCU: 0x15353, offset: 0x3CC5B, size: 0x8, addend: 0x0, symName: '__ZNSt3__110__function6__funcIZ4mainE3$_1NS_9allocatorIS2_EEFvvEED2Ev', symObjAddr: 0x69C8, symBinAddr: 0x10000DDD8, symSize: 0x2C }
  - { offsetInCU: 0x1537D, offset: 0x3CC85, size: 0x8, addend: 0x0, symName: '__ZNKSt3__110__function12__alloc_funcIZ4mainE3$_1NS_9allocatorIS2_EEFvvEE15__get_allocatorB8ne180100Ev', symObjAddr: 0x69F4, symBinAddr: 0x10000DE04, symSize: 0x24 }
  - { offsetInCU: 0x153A1, offset: 0x3CCA9, size: 0x8, addend: 0x0, symName: '__ZNSt3__19allocatorINS_10__function6__funcIZ4mainE3$_1NS0_IS3_EEFvvEEEE8allocateB8ne180100Em', symObjAddr: 0x6A18, symBinAddr: 0x10000DE28, symSize: 0x58 }
  - { offsetInCU: 0x153E2, offset: 0x3CCEA, size: 0x8, addend: 0x0, symName: '__ZNSt3__122__allocator_destructorINS_9allocatorINS_10__function6__funcIZ4mainE3$_1NS1_IS4_EEFvvEEEEEEC1B8ne180100ERS8_m', symObjAddr: 0x6A70, symBinAddr: 0x10000DE80, symSize: 0x3C }
  - { offsetInCU: 0x154B2, offset: 0x3CDBA, size: 0x8, addend: 0x0, symName: '__ZNSt3__110unique_ptrINS_10__function6__funcIZ4mainE3$_1NS_9allocatorIS3_EEFvvEEENS_22__allocator_destructorINS4_IS7_EEEEEC1B8ne180100ILb1EvEEPS7_NS_16__dependent_typeINS_27__unique_ptr_deleter_sfinaeISA_EEXT_EE20__good_rval_ref_typeE', symObjAddr: 0x6AAC, symBinAddr: 0x10000DEBC, symSize: 0x3C }
  - { offsetInCU: 0x15501, offset: 0x3CE09, size: 0x8, addend: 0x0, symName: '__ZNKSt3__110unique_ptrINS_10__function6__funcIZ4mainE3$_1NS_9allocatorIS3_EEFvvEEENS_22__allocator_destructorINS4_IS7_EEEEE3getB8ne180100Ev', symObjAddr: 0x6AE8, symBinAddr: 0x10000DEF8, symSize: 0x28 }
  - { offsetInCU: 0x15525, offset: 0x3CE2D, size: 0x8, addend: 0x0, symName: '__ZNKSt3__110__function12__alloc_funcIZ4mainE3$_1NS_9allocatorIS2_EEFvvEE8__targetB8ne180100Ev', symObjAddr: 0x6B10, symBinAddr: 0x10000DF20, symSize: 0x24 }
  - { offsetInCU: 0x15549, offset: 0x3CE51, size: 0x8, addend: 0x0, symName: '__ZNSt3__110__function6__funcIZ4mainE3$_1NS_9allocatorIS2_EEFvvEEC1B8ne180100ERKS2_OS4_', symObjAddr: 0x6B34, symBinAddr: 0x10000DF44, symSize: 0x3C }
  - { offsetInCU: 0x1558F, offset: 0x3CE97, size: 0x8, addend: 0x0, symName: '__ZNSt3__110unique_ptrINS_10__function6__funcIZ4mainE3$_1NS_9allocatorIS3_EEFvvEEENS_22__allocator_destructorINS4_IS7_EEEEE7releaseB8ne180100Ev', symObjAddr: 0x6B70, symBinAddr: 0x10000DF80, symSize: 0x44 }
  - { offsetInCU: 0x155C2, offset: 0x3CECA, size: 0x8, addend: 0x0, symName: '__ZNSt3__110unique_ptrINS_10__function6__funcIZ4mainE3$_1NS_9allocatorIS3_EEFvvEEENS_22__allocator_destructorINS4_IS7_EEEEED1B8ne180100Ev', symObjAddr: 0x6BB4, symBinAddr: 0x10000DFC4, symSize: 0x2C }
  - { offsetInCU: 0x155EA, offset: 0x3CEF2, size: 0x8, addend: 0x0, symName: '__ZNKSt3__117__compressed_pairIZ4mainE3$_1NS_9allocatorIS1_EEE6secondB8ne180100Ev', symObjAddr: 0x6BE0, symBinAddr: 0x10000DFF0, symSize: 0x24 }
  - { offsetInCU: 0x1560E, offset: 0x3CF16, size: 0x8, addend: 0x0, symName: '__ZNKSt3__122__compressed_pair_elemINS_9allocatorIZ4mainE3$_1EELi1ELb1EE5__getB8ne180100Ev', symObjAddr: 0x6C04, symBinAddr: 0x10000E014, symSize: 0x14 }
  - { offsetInCU: 0x1563C, offset: 0x3CF44, size: 0x8, addend: 0x0, symName: '__ZNSt3__116allocator_traitsINS_9allocatorINS_10__function6__funcIZ4mainE3$_1NS1_IS4_EEFvvEEEEEE8max_sizeB8ne180100IS8_vEEmRKS8_', symObjAddr: 0x6C18, symBinAddr: 0x10000E028, symSize: 0x24 }
  - { offsetInCU: 0x15669, offset: 0x3CF71, size: 0x8, addend: 0x0, symName: '__ZNKSt3__19allocatorINS_10__function6__funcIZ4mainE3$_1NS0_IS3_EEFvvEEEE8max_sizeB8ne180100Ev', symObjAddr: 0x6C3C, symBinAddr: 0x10000E04C, symSize: 0x14 }
  - { offsetInCU: 0x1568D, offset: 0x3CF95, size: 0x8, addend: 0x0, symName: '__ZNSt3__122__allocator_destructorINS_9allocatorINS_10__function6__funcIZ4mainE3$_1NS1_IS4_EEFvvEEEEEEC2B8ne180100ERS8_m', symObjAddr: 0x6C50, symBinAddr: 0x10000E060, symSize: 0x2C }
  - { offsetInCU: 0x156D1, offset: 0x3CFD9, size: 0x8, addend: 0x0, symName: '__ZNSt3__110unique_ptrINS_10__function6__funcIZ4mainE3$_1NS_9allocatorIS3_EEFvvEEENS_22__allocator_destructorINS4_IS7_EEEEEC2B8ne180100ILb1EvEEPS7_NS_16__dependent_typeINS_27__unique_ptr_deleter_sfinaeISA_EEXT_EE20__good_rval_ref_typeE', symObjAddr: 0x6C7C, symBinAddr: 0x10000E08C, symSize: 0x48 }
  - { offsetInCU: 0x15720, offset: 0x3D028, size: 0x8, addend: 0x0, symName: '__ZNSt3__117__compressed_pairIPNS_10__function6__funcIZ4mainE3$_1NS_9allocatorIS3_EEFvvEEENS_22__allocator_destructorINS4_IS7_EEEEEC1B8ne180100IRS8_SB_EEOT_OT0_', symObjAddr: 0x6CC4, symBinAddr: 0x10000E0D4, symSize: 0x3C }
  - { offsetInCU: 0x15776, offset: 0x3D07E, size: 0x8, addend: 0x0, symName: '__ZNSt3__117__compressed_pairIPNS_10__function6__funcIZ4mainE3$_1NS_9allocatorIS3_EEFvvEEENS_22__allocator_destructorINS4_IS7_EEEEEC2B8ne180100IRS8_SB_EEOT_OT0_', symObjAddr: 0x6D00, symBinAddr: 0x10000E110, symSize: 0x48 }
  - { offsetInCU: 0x157CC, offset: 0x3D0D4, size: 0x8, addend: 0x0, symName: '__ZNSt3__122__compressed_pair_elemIPNS_10__function6__funcIZ4mainE3$_1NS_9allocatorIS3_EEFvvEEELi0ELb0EEC2B8ne180100IRS8_vEEOT_', symObjAddr: 0x6D48, symBinAddr: 0x10000E158, symSize: 0x24 }
  - { offsetInCU: 0x1580C, offset: 0x3D114, size: 0x8, addend: 0x0, symName: '__ZNSt3__122__compressed_pair_elemINS_22__allocator_destructorINS_9allocatorINS_10__function6__funcIZ4mainE3$_1NS2_IS5_EEFvvEEEEEEELi1ELb0EEC2B8ne180100ISA_vEEOT_', symObjAddr: 0x6D6C, symBinAddr: 0x10000E17C, symSize: 0x24 }
  - { offsetInCU: 0x1584C, offset: 0x3D154, size: 0x8, addend: 0x0, symName: '__ZNKSt3__117__compressed_pairIPNS_10__function6__funcIZ4mainE3$_1NS_9allocatorIS3_EEFvvEEENS_22__allocator_destructorINS4_IS7_EEEEE5firstB8ne180100Ev', symObjAddr: 0x6D90, symBinAddr: 0x10000E1A0, symSize: 0x24 }
  - { offsetInCU: 0x15870, offset: 0x3D178, size: 0x8, addend: 0x0, symName: '__ZNKSt3__122__compressed_pair_elemIPNS_10__function6__funcIZ4mainE3$_1NS_9allocatorIS3_EEFvvEEELi0ELb0EE5__getB8ne180100Ev', symObjAddr: 0x6DB4, symBinAddr: 0x10000E1C4, symSize: 0x14 }
  - { offsetInCU: 0x15894, offset: 0x3D19C, size: 0x8, addend: 0x0, symName: '__ZNKSt3__117__compressed_pairIZ4mainE3$_1NS_9allocatorIS1_EEE5firstB8ne180100Ev', symObjAddr: 0x6DC8, symBinAddr: 0x10000E1D8, symSize: 0x24 }
  - { offsetInCU: 0x158B8, offset: 0x3D1C0, size: 0x8, addend: 0x0, symName: '__ZNKSt3__122__compressed_pair_elemIZ4mainE3$_1Li0ELb0EE5__getB8ne180100Ev', symObjAddr: 0x6DEC, symBinAddr: 0x10000E1FC, symSize: 0x14 }
  - { offsetInCU: 0x158DC, offset: 0x3D1E4, size: 0x8, addend: 0x0, symName: '__ZNSt3__110__function6__funcIZ4mainE3$_1NS_9allocatorIS2_EEFvvEEC2B8ne180100ERKS2_OS4_', symObjAddr: 0x6E00, symBinAddr: 0x10000E210, symSize: 0x88 }
  - { offsetInCU: 0x15922, offset: 0x3D22A, size: 0x8, addend: 0x0, symName: '__ZNSt3__110__function12__alloc_funcIZ4mainE3$_1NS_9allocatorIS2_EEFvvEEC1B8ne180100ERKS2_OS4_', symObjAddr: 0x6E88, symBinAddr: 0x10000E298, symSize: 0x3C }
  - { offsetInCU: 0x15966, offset: 0x3D26E, size: 0x8, addend: 0x0, symName: '__ZNSt3__110__function12__alloc_funcIZ4mainE3$_1NS_9allocatorIS2_EEFvvEEC2B8ne180100ERKS2_OS4_', symObjAddr: 0x6EC4, symBinAddr: 0x10000E2D4, symSize: 0x5C }
  - { offsetInCU: 0x159AA, offset: 0x3D2B2, size: 0x8, addend: 0x0, symName: '__ZNSt3__117__compressed_pairIZ4mainE3$_1NS_9allocatorIS1_EEEC1B8ne180100IJRKS1_EJOS3_EEENS_21piecewise_construct_tENS_5tupleIJDpT_EEENSA_IJDpT0_EEE', symObjAddr: 0x6F4C, symBinAddr: 0x10000E35C, symSize: 0x3C }
  - { offsetInCU: 0x15A12, offset: 0x3D31A, size: 0x8, addend: 0x0, symName: '__ZNSt3__15tupleIJRKZ4mainE3$_1EEC1B8ne180100INS_4_AndELi0EEES3_', symObjAddr: 0x6F88, symBinAddr: 0x10000E398, symSize: 0x34 }
  - { offsetInCU: 0x15A59, offset: 0x3D361, size: 0x8, addend: 0x0, symName: '__ZNSt3__15tupleIJRKZ4mainE3$_1EEC2B8ne180100INS_4_AndELi0EEES3_', symObjAddr: 0x6FBC, symBinAddr: 0x10000E3CC, symSize: 0x34 }
  - { offsetInCU: 0x15AA0, offset: 0x3D3A8, size: 0x8, addend: 0x0, symName: '__ZNSt3__112__tuple_implINS_15__tuple_indicesIJLm0EEEEJRKZ4mainE3$_1EEC1B8ne180100IJLm0EEJS5_EJEJEJS5_EEENS1_IJXspT_EEEENS_13__tuple_typesIJDpT0_EEENS1_IJXspT1_EEEENS9_IJDpT2_EEEDpOT3_', symObjAddr: 0x6FF0, symBinAddr: 0x10000E400, symSize: 0x34 }
  - { offsetInCU: 0x15B2F, offset: 0x3D437, size: 0x8, addend: 0x0, symName: '__ZNSt3__112__tuple_implINS_15__tuple_indicesIJLm0EEEEJRKZ4mainE3$_1EEC2B8ne180100IJLm0EEJS5_EJEJEJS5_EEENS1_IJXspT_EEEENS_13__tuple_typesIJDpT0_EEENS1_IJXspT1_EEEENS9_IJDpT2_EEEDpOT3_', symObjAddr: 0x7024, symBinAddr: 0x10000E434, symSize: 0x34 }
  - { offsetInCU: 0x15BBE, offset: 0x3D4C6, size: 0x8, addend: 0x0, symName: '__ZNSt3__112__tuple_leafILm0ERKZ4mainE3$_1Lb0EEC2B8ne180100IS3_vEEOT_', symObjAddr: 0x7058, symBinAddr: 0x10000E468, symSize: 0x20 }
  - { offsetInCU: 0x15BFF, offset: 0x3D507, size: 0x8, addend: 0x0, symName: '__ZNSt3__117__compressed_pairIZ4mainE3$_1NS_9allocatorIS1_EEEC2B8ne180100IJRKS1_EJOS3_EEENS_21piecewise_construct_tENS_5tupleIJDpT_EEENSA_IJDpT0_EEE', symObjAddr: 0x7078, symBinAddr: 0x10000E488, symSize: 0x54 }
  - { offsetInCU: 0x15C67, offset: 0x3D56F, size: 0x8, addend: 0x0, symName: '__ZNSt3__122__compressed_pair_elemIZ4mainE3$_1Li0ELb0EEC2B8ne180100IJRKS1_EJLm0EEEENS_21piecewise_construct_tENS_5tupleIJDpT_EEENS_15__tuple_indicesIJXspT0_EEEE', symObjAddr: 0x70CC, symBinAddr: 0x10000E4DC, symSize: 0x44 }
  - { offsetInCU: 0x15CC8, offset: 0x3D5D0, size: 0x8, addend: 0x0, symName: '__ZNSt3__112__tuple_leafILm0ERKZ4mainE3$_1Lb0EE3getB8ne180100Ev', symObjAddr: 0x7134, symBinAddr: 0x10000E544, symSize: 0x18 }
  - { offsetInCU: 0x15CEC, offset: 0x3D5F4, size: 0x8, addend: 0x0, symName: '__ZNSt3__117__compressed_pairIPNS_10__function6__funcIZ4mainE3$_1NS_9allocatorIS3_EEFvvEEENS_22__allocator_destructorINS4_IS7_EEEEE5firstB8ne180100Ev', symObjAddr: 0x714C, symBinAddr: 0x10000E55C, symSize: 0x24 }
  - { offsetInCU: 0x15D10, offset: 0x3D618, size: 0x8, addend: 0x0, symName: '__ZNSt3__122__compressed_pair_elemIPNS_10__function6__funcIZ4mainE3$_1NS_9allocatorIS3_EEFvvEEELi0ELb0EE5__getB8ne180100Ev', symObjAddr: 0x7170, symBinAddr: 0x10000E580, symSize: 0x14 }
  - { offsetInCU: 0x15D34, offset: 0x3D63C, size: 0x8, addend: 0x0, symName: '__ZNSt3__110unique_ptrINS_10__function6__funcIZ4mainE3$_1NS_9allocatorIS3_EEFvvEEENS_22__allocator_destructorINS4_IS7_EEEEED2B8ne180100Ev', symObjAddr: 0x7184, symBinAddr: 0x10000E594, symSize: 0x30 }
  - { offsetInCU: 0x15D5C, offset: 0x3D664, size: 0x8, addend: 0x0, symName: '__ZNSt3__110unique_ptrINS_10__function6__funcIZ4mainE3$_1NS_9allocatorIS3_EEFvvEEENS_22__allocator_destructorINS4_IS7_EEEEE5resetB8ne180100EPS7_', symObjAddr: 0x71B4, symBinAddr: 0x10000E5C4, symSize: 0x78 }
  - { offsetInCU: 0x15D9E, offset: 0x3D6A6, size: 0x8, addend: 0x0, symName: '__ZNSt3__117__compressed_pairIPNS_10__function6__funcIZ4mainE3$_1NS_9allocatorIS3_EEFvvEEENS_22__allocator_destructorINS4_IS7_EEEEE6secondB8ne180100Ev', symObjAddr: 0x722C, symBinAddr: 0x10000E63C, symSize: 0x28 }
  - { offsetInCU: 0x15DC2, offset: 0x3D6CA, size: 0x8, addend: 0x0, symName: '__ZNSt3__122__allocator_destructorINS_9allocatorINS_10__function6__funcIZ4mainE3$_1NS1_IS4_EEFvvEEEEEEclB8ne180100EPS7_', symObjAddr: 0x7254, symBinAddr: 0x10000E664, symSize: 0x34 }
  - { offsetInCU: 0x15DF4, offset: 0x3D6FC, size: 0x8, addend: 0x0, symName: '__ZNSt3__122__compressed_pair_elemINS_22__allocator_destructorINS_9allocatorINS_10__function6__funcIZ4mainE3$_1NS2_IS5_EEFvvEEEEEEELi1ELb0EE5__getB8ne180100Ev', symObjAddr: 0x7288, symBinAddr: 0x10000E698, symSize: 0x14 }
  - { offsetInCU: 0x15E18, offset: 0x3D720, size: 0x8, addend: 0x0, symName: '__ZNSt3__116allocator_traitsINS_9allocatorINS_10__function6__funcIZ4mainE3$_1NS1_IS4_EEFvvEEEEEE10deallocateB8ne180100ERS8_PS7_m', symObjAddr: 0x729C, symBinAddr: 0x10000E6AC, symSize: 0x34 }
  - { offsetInCU: 0x15E59, offset: 0x3D761, size: 0x8, addend: 0x0, symName: '__ZNSt3__19allocatorINS_10__function6__funcIZ4mainE3$_1NS0_IS3_EEFvvEEEE10deallocateB8ne180100EPS6_m', symObjAddr: 0x72D0, symBinAddr: 0x10000E6E0, symSize: 0x40 }
  - { offsetInCU: 0x15E99, offset: 0x3D7A1, size: 0x8, addend: 0x0, symName: '__ZNSt3__110__function6__funcIZ4mainE3$_1NS_9allocatorIS2_EEFvvEEC1B8ne180100ERKS2_RKS4_', symObjAddr: 0x7310, symBinAddr: 0x10000E720, symSize: 0x3C }
  - { offsetInCU: 0x15EDF, offset: 0x3D7E7, size: 0x8, addend: 0x0, symName: '__ZNSt3__110__function6__funcIZ4mainE3$_1NS_9allocatorIS2_EEFvvEEC2B8ne180100ERKS2_RKS4_', symObjAddr: 0x734C, symBinAddr: 0x10000E75C, symSize: 0x88 }
  - { offsetInCU: 0x15F25, offset: 0x3D82D, size: 0x8, addend: 0x0, symName: '__ZNSt3__110__function12__alloc_funcIZ4mainE3$_1NS_9allocatorIS2_EEFvvEEC1B8ne180100ERKS2_RKS4_', symObjAddr: 0x73D4, symBinAddr: 0x10000E7E4, symSize: 0x3C }
  - { offsetInCU: 0x15F69, offset: 0x3D871, size: 0x8, addend: 0x0, symName: '__ZNSt3__110__function12__alloc_funcIZ4mainE3$_1NS_9allocatorIS2_EEFvvEEC2B8ne180100ERKS2_RKS4_', symObjAddr: 0x7410, symBinAddr: 0x10000E820, symSize: 0x5C }
  - { offsetInCU: 0x15FAD, offset: 0x3D8B5, size: 0x8, addend: 0x0, symName: '__ZNSt3__117__compressed_pairIZ4mainE3$_1NS_9allocatorIS1_EEEC1B8ne180100IJRKS1_EJRKS3_EEENS_21piecewise_construct_tENS_5tupleIJDpT_EEENSB_IJDpT0_EEE', symObjAddr: 0x7498, symBinAddr: 0x10000E8A8, symSize: 0x3C }
  - { offsetInCU: 0x16015, offset: 0x3D91D, size: 0x8, addend: 0x0, symName: '__ZNSt3__15tupleIJRKNS_9allocatorIZ4mainE3$_1EEEEC1B8ne180100INS_4_AndELi0EEES5_', symObjAddr: 0x74D4, symBinAddr: 0x10000E8E4, symSize: 0x34 }
  - { offsetInCU: 0x1605C, offset: 0x3D964, size: 0x8, addend: 0x0, symName: '__ZNSt3__15tupleIJRKNS_9allocatorIZ4mainE3$_1EEEEC2B8ne180100INS_4_AndELi0EEES5_', symObjAddr: 0x7508, symBinAddr: 0x10000E918, symSize: 0x34 }
  - { offsetInCU: 0x160A3, offset: 0x3D9AB, size: 0x8, addend: 0x0, symName: '__ZNSt3__112__tuple_implINS_15__tuple_indicesIJLm0EEEEJRKNS_9allocatorIZ4mainE3$_1EEEEC1B8ne180100IJLm0EEJS7_EJEJEJS7_EEENS1_IJXspT_EEEENS_13__tuple_typesIJDpT0_EEENS1_IJXspT1_EEEENSB_IJDpT2_EEEDpOT3_', symObjAddr: 0x753C, symBinAddr: 0x10000E94C, symSize: 0x34 }
  - { offsetInCU: 0x16132, offset: 0x3DA3A, size: 0x8, addend: 0x0, symName: '__ZNSt3__112__tuple_implINS_15__tuple_indicesIJLm0EEEEJRKNS_9allocatorIZ4mainE3$_1EEEEC2B8ne180100IJLm0EEJS7_EJEJEJS7_EEENS1_IJXspT_EEEENS_13__tuple_typesIJDpT0_EEENS1_IJXspT1_EEEENSB_IJDpT2_EEEDpOT3_', symObjAddr: 0x7570, symBinAddr: 0x10000E980, symSize: 0x34 }
  - { offsetInCU: 0x161C1, offset: 0x3DAC9, size: 0x8, addend: 0x0, symName: '__ZNSt3__112__tuple_leafILm0ERKNS_9allocatorIZ4mainE3$_1EELb0EEC2B8ne180100IS5_vEEOT_', symObjAddr: 0x75A4, symBinAddr: 0x10000E9B4, symSize: 0x20 }
  - { offsetInCU: 0x16202, offset: 0x3DB0A, size: 0x8, addend: 0x0, symName: '__ZNSt3__117__compressed_pairIZ4mainE3$_1NS_9allocatorIS1_EEEC2B8ne180100IJRKS1_EJRKS3_EEENS_21piecewise_construct_tENS_5tupleIJDpT_EEENSB_IJDpT0_EEE', symObjAddr: 0x75C4, symBinAddr: 0x10000E9D4, symSize: 0x54 }
  - { offsetInCU: 0x1626A, offset: 0x3DB72, size: 0x8, addend: 0x0, symName: '__ZNSt3__122__compressed_pair_elemINS_9allocatorIZ4mainE3$_1EELi1ELb1EEC2B8ne180100IJRKS3_EJLm0EEEENS_21piecewise_construct_tENS_5tupleIJDpT_EEENS_15__tuple_indicesIJXspT0_EEEE', symObjAddr: 0x7618, symBinAddr: 0x10000EA28, symSize: 0x38 }
  - { offsetInCU: 0x162CB, offset: 0x3DBD3, size: 0x8, addend: 0x0, symName: '__ZNSt3__112__tuple_leafILm0ERKNS_9allocatorIZ4mainE3$_1EELb0EE3getB8ne180100Ev', symObjAddr: 0x7674, symBinAddr: 0x10000EA84, symSize: 0x18 }
  - { offsetInCU: 0x162EF, offset: 0x3DBF7, size: 0x8, addend: 0x0, symName: '__ZNSt3__110__function12__alloc_funcIZ4mainE3$_1NS_9allocatorIS2_EEFvvEE7destroyB8ne180100Ev', symObjAddr: 0x768C, symBinAddr: 0x10000EA9C, symSize: 0x10 }
  - { offsetInCU: 0x16313, offset: 0x3DC1B, size: 0x8, addend: 0x0, symName: '__ZNSt3__110__function12__alloc_funcIZ4mainE3$_1NS_9allocatorIS2_EEFvvEEclB8ne180100Ev', symObjAddr: 0x769C, symBinAddr: 0x10000EAAC, symSize: 0x28 }
  - { offsetInCU: 0x16337, offset: 0x3DC3F, size: 0x8, addend: 0x0, symName: '__ZNSt3__128__invoke_void_return_wrapperIvLb1EE6__callB8ne180100IJRZ4mainE3$_1EEEvDpOT_', symObjAddr: 0x76C4, symBinAddr: 0x10000EAD4, symSize: 0x24 }
  - { offsetInCU: 0x16365, offset: 0x3DC6D, size: 0x8, addend: 0x0, symName: '__ZNSt3__117__compressed_pairIZ4mainE3$_1NS_9allocatorIS1_EEE5firstB8ne180100Ev', symObjAddr: 0x76E8, symBinAddr: 0x10000EAF8, symSize: 0x24 }
  - { offsetInCU: 0x16389, offset: 0x3DC91, size: 0x8, addend: 0x0, symName: '__ZZ4mainENK3$_1clEv', symObjAddr: 0x7730, symBinAddr: 0x10000EB40, symSize: 0x28 }
  - { offsetInCU: 0x163B1, offset: 0x3DCB9, size: 0x8, addend: 0x0, symName: '__ZNSt3__122__compressed_pair_elemIZ4mainE3$_1Li0ELb0EE5__getB8ne180100Ev', symObjAddr: 0x7758, symBinAddr: 0x10000EB68, symSize: 0x14 }
  - { offsetInCU: 0x163D5, offset: 0x3DCDD, size: 0x8, addend: 0x0, symName: '__ZNSt3__16vectorI6ButtonNS_9allocatorIS1_EEE22__construct_one_at_endB8ne180100IJRP8GameTextiiii9SDL_ColorZ4mainE3$_2EEEvDpOT_', symObjAddr: 0x776C, symBinAddr: 0x10000EB7C, symSize: 0xC8 }
  - { offsetInCU: 0x1649B, offset: 0x3DDA3, size: 0x8, addend: 0x0, symName: '__ZNSt3__16vectorI6ButtonNS_9allocatorIS1_EEE24__emplace_back_slow_pathIJRP8GameTextiiii9SDL_ColorZ4mainE3$_2EEEPS1_DpOT_', symObjAddr: 0x7834, symBinAddr: 0x10000EC44, symSize: 0x120 }
  - { offsetInCU: 0x16573, offset: 0x3DE7B, size: 0x8, addend: 0x0, symName: '__ZNSt3__116allocator_traitsINS_9allocatorI6ButtonEEE9constructB8ne180100IS2_JRP8GameTextiiii9SDL_ColorZ4mainE3$_2EvEEvRS3_PT_DpOT0_', symObjAddr: 0x7954, symBinAddr: 0x10000ED64, symSize: 0x70 }
  - { offsetInCU: 0x16641, offset: 0x3DF49, size: 0x8, addend: 0x0, symName: '__ZNSt3__19allocatorI6ButtonE9constructB8ne180100IS1_JRP8GameTextiiii9SDL_ColorZ4mainE3$_2EEEvPT_DpOT0_', symObjAddr: 0x79C4, symBinAddr: 0x10000EDD4, symSize: 0x138 }
  - { offsetInCU: 0x1670D, offset: 0x3E015, size: 0x8, addend: 0x0, symName: '__ZNSt3__18functionIFvvEEC1IZ4mainE3$_2vEET_', symObjAddr: 0x7AFC, symBinAddr: 0x10000EF0C, symSize: 0x34 }
  - { offsetInCU: 0x16750, offset: 0x3E058, size: 0x8, addend: 0x0, symName: '__ZNSt3__18functionIFvvEEC2IZ4mainE3$_2vEET_', symObjAddr: 0x7B30, symBinAddr: 0x10000EF40, symSize: 0x38 }
  - { offsetInCU: 0x16793, offset: 0x3E09B, size: 0x8, addend: 0x0, symName: '__ZNSt3__110__function12__value_funcIFvvEEC1B8ne180100IZ4mainE3$_2Li0EEEOT_', symObjAddr: 0x7B68, symBinAddr: 0x10000EF78, symSize: 0x50 }
  - { offsetInCU: 0x167D9, offset: 0x3E0E1, size: 0x8, addend: 0x0, symName: '__ZNSt3__19allocatorIZ4mainE3$_2EC1B8ne180100Ev', symObjAddr: 0x7BB8, symBinAddr: 0x10000EFC8, symSize: 0x2C }
  - { offsetInCU: 0x16801, offset: 0x3E109, size: 0x8, addend: 0x0, symName: '__ZNSt3__110__function12__value_funcIFvvEEC1B8ne180100IZ4mainE3$_2NS_9allocatorIS5_EEEEOT_RKT0_', symObjAddr: 0x7BE4, symBinAddr: 0x10000EFF4, symSize: 0x3C }
  - { offsetInCU: 0x16859, offset: 0x3E161, size: 0x8, addend: 0x0, symName: '__ZNSt3__19allocatorIZ4mainE3$_2EC2B8ne180100Ev', symObjAddr: 0x7C20, symBinAddr: 0x10000F030, symSize: 0x2C }
  - { offsetInCU: 0x16881, offset: 0x3E189, size: 0x8, addend: 0x0, symName: '__ZNSt3__116__non_trivial_ifILb1ENS_9allocatorIZ4mainE3$_2EEEC2B8ne180100Ev', symObjAddr: 0x7C4C, symBinAddr: 0x10000F05C, symSize: 0x14 }
  - { offsetInCU: 0x168A9, offset: 0x3E1B1, size: 0x8, addend: 0x0, symName: '__ZNSt3__110__function12__value_funcIFvvEEC2B8ne180100IZ4mainE3$_2NS_9allocatorIS5_EEEEOT_RKT0_', symObjAddr: 0x7C60, symBinAddr: 0x10000F070, symSize: 0x94 }
  - { offsetInCU: 0x1694D, offset: 0x3E255, size: 0x8, addend: 0x0, symName: '__ZNSt3__19allocatorINS_10__function6__funcIZ4mainE3$_2NS0_IS3_EEFvvEEEEC1B8ne180100IS3_EERKNS0_IT_EE', symObjAddr: 0x7D0C, symBinAddr: 0x10000F11C, symSize: 0x34 }
  - { offsetInCU: 0x1698D, offset: 0x3E295, size: 0x8, addend: 0x0, symName: '__ZNSt3__19allocatorIZ4mainE3$_2EC1B8ne180100INS_10__function6__funcIS1_S2_FvvEEEEERKNS0_IT_EE', symObjAddr: 0x7D40, symBinAddr: 0x10000F150, symSize: 0x34 }
  - { offsetInCU: 0x169C8, offset: 0x3E2D0, size: 0x8, addend: 0x0, symName: '__ZNSt3__110__function6__funcIZ4mainE3$_2NS_9allocatorIS2_EEFvvEEC1B8ne180100EOS2_OS4_', symObjAddr: 0x7D74, symBinAddr: 0x10000F184, symSize: 0x3C }
  - { offsetInCU: 0x16A0E, offset: 0x3E316, size: 0x8, addend: 0x0, symName: '__ZNSt3__19allocatorINS_10__function6__funcIZ4mainE3$_2NS0_IS3_EEFvvEEEEC2B8ne180100IS3_EERKNS0_IT_EE', symObjAddr: 0x7DB0, symBinAddr: 0x10000F1C0, symSize: 0x30 }
  - { offsetInCU: 0x16A49, offset: 0x3E351, size: 0x8, addend: 0x0, symName: '__ZNSt3__116__non_trivial_ifILb1ENS_9allocatorINS_10__function6__funcIZ4mainE3$_2NS1_IS4_EEFvvEEEEEEC2B8ne180100Ev', symObjAddr: 0x7DE0, symBinAddr: 0x10000F1F0, symSize: 0x14 }
  - { offsetInCU: 0x16A71, offset: 0x3E379, size: 0x8, addend: 0x0, symName: '__ZNSt3__19allocatorIZ4mainE3$_2EC2B8ne180100INS_10__function6__funcIS1_S2_FvvEEEEERKNS0_IT_EE', symObjAddr: 0x7DF4, symBinAddr: 0x10000F204, symSize: 0x30 }
  - { offsetInCU: 0x16AAC, offset: 0x3E3B4, size: 0x8, addend: 0x0, symName: '__ZNSt3__110__function6__funcIZ4mainE3$_2NS_9allocatorIS2_EEFvvEEC2B8ne180100EOS2_OS4_', symObjAddr: 0x7E24, symBinAddr: 0x10000F234, symSize: 0x88 }
  - { offsetInCU: 0x16AF2, offset: 0x3E3FA, size: 0x8, addend: 0x0, symName: '__ZNSt3__110__function12__alloc_funcIZ4mainE3$_2NS_9allocatorIS2_EEFvvEEC1B8ne180100EOS2_OS4_', symObjAddr: 0x7EAC, symBinAddr: 0x10000F2BC, symSize: 0x3C }
  - { offsetInCU: 0x16B36, offset: 0x3E43E, size: 0x8, addend: 0x0, symName: '__ZNSt3__110__function6__funcIZ4mainE3$_2NS_9allocatorIS2_EEFvvEED1Ev', symObjAddr: 0x7EE8, symBinAddr: 0x10000F2F8, symSize: 0x2C }
  - { offsetInCU: 0x16B60, offset: 0x3E468, size: 0x8, addend: 0x0, symName: '__ZNSt3__110__function6__funcIZ4mainE3$_2NS_9allocatorIS2_EEFvvEED0Ev', symObjAddr: 0x7F14, symBinAddr: 0x10000F324, symSize: 0x30 }
  - { offsetInCU: 0x16B8A, offset: 0x3E492, size: 0x8, addend: 0x0, symName: '__ZNKSt3__110__function6__funcIZ4mainE3$_2NS_9allocatorIS2_EEFvvEE7__cloneEv', symObjAddr: 0x7F44, symBinAddr: 0x10000F354, symSize: 0xFC }
  - { offsetInCU: 0x16BDA, offset: 0x3E4E2, size: 0x8, addend: 0x0, symName: '__ZNKSt3__110__function6__funcIZ4mainE3$_2NS_9allocatorIS2_EEFvvEE7__cloneEPNS0_6__baseIS5_EE', symObjAddr: 0x8040, symBinAddr: 0x10000F450, symSize: 0x58 }
  - { offsetInCU: 0x16C0F, offset: 0x3E517, size: 0x8, addend: 0x0, symName: '__ZNSt3__110__function6__funcIZ4mainE3$_2NS_9allocatorIS2_EEFvvEE7destroyEv', symObjAddr: 0x8098, symBinAddr: 0x10000F4A8, symSize: 0x28 }
  - { offsetInCU: 0x16C35, offset: 0x3E53D, size: 0x8, addend: 0x0, symName: '__ZNSt3__110__function6__funcIZ4mainE3$_2NS_9allocatorIS2_EEFvvEE18destroy_deallocateEv', symObjAddr: 0x80C0, symBinAddr: 0x10000F4D0, symSize: 0x58 }
  - { offsetInCU: 0x16C76, offset: 0x3E57E, size: 0x8, addend: 0x0, symName: '__ZNSt3__110__function6__funcIZ4mainE3$_2NS_9allocatorIS2_EEFvvEEclEv', symObjAddr: 0x8118, symBinAddr: 0x10000F528, symSize: 0x28 }
  - { offsetInCU: 0x16C9C, offset: 0x3E5A4, size: 0x8, addend: 0x0, symName: '__ZNKSt3__110__function6__funcIZ4mainE3$_2NS_9allocatorIS2_EEFvvEE6targetERKSt9type_info', symObjAddr: 0x8140, symBinAddr: 0x10000F550, symSize: 0x60 }
  - { offsetInCU: 0x16CD1, offset: 0x3E5D9, size: 0x8, addend: 0x0, symName: '__ZNKSt3__110__function6__funcIZ4mainE3$_2NS_9allocatorIS2_EEFvvEE11target_typeEv', symObjAddr: 0x81A0, symBinAddr: 0x10000F5B0, symSize: 0x18 }
  - { offsetInCU: 0x16CF7, offset: 0x3E5FF, size: 0x8, addend: 0x0, symName: '__ZNSt3__110__function12__alloc_funcIZ4mainE3$_2NS_9allocatorIS2_EEFvvEEC2B8ne180100EOS2_OS4_', symObjAddr: 0x81B8, symBinAddr: 0x10000F5C8, symSize: 0x5C }
  - { offsetInCU: 0x16D3B, offset: 0x3E643, size: 0x8, addend: 0x0, symName: '__ZNSt3__117__compressed_pairIZ4mainE3$_2NS_9allocatorIS1_EEEC1B8ne180100IJOS1_EJOS3_EEENS_21piecewise_construct_tENS_5tupleIJDpT_EEENS9_IJDpT0_EEE', symObjAddr: 0x826C, symBinAddr: 0x10000F67C, symSize: 0x3C }
  - { offsetInCU: 0x16DA3, offset: 0x3E6AB, size: 0x8, addend: 0x0, symName: '__ZNSt3__15tupleIJOZ4mainE3$_2EEC1B8ne180100IJS1_ELi0EEEDpOT_', symObjAddr: 0x82A8, symBinAddr: 0x10000F6B8, symSize: 0x34 }
  - { offsetInCU: 0x16DEB, offset: 0x3E6F3, size: 0x8, addend: 0x0, symName: '__ZNSt3__15tupleIJOZ4mainE3$_2EEC2B8ne180100IJS1_ELi0EEEDpOT_', symObjAddr: 0x82DC, symBinAddr: 0x10000F6EC, symSize: 0x34 }
  - { offsetInCU: 0x16E33, offset: 0x3E73B, size: 0x8, addend: 0x0, symName: '__ZNSt3__112__tuple_implINS_15__tuple_indicesIJLm0EEEEJOZ4mainE3$_2EEC1B8ne180100IJLm0EEJS4_EJEJEJS3_EEENS1_IJXspT_EEEENS_13__tuple_typesIJDpT0_EEENS1_IJXspT1_EEEENS8_IJDpT2_EEEDpOT3_', symObjAddr: 0x8310, symBinAddr: 0x10000F720, symSize: 0x34 }
  - { offsetInCU: 0x16EC2, offset: 0x3E7CA, size: 0x8, addend: 0x0, symName: '__ZNSt3__112__tuple_implINS_15__tuple_indicesIJLm0EEEEJOZ4mainE3$_2EEC2B8ne180100IJLm0EEJS4_EJEJEJS3_EEENS1_IJXspT_EEEENS_13__tuple_typesIJDpT0_EEENS1_IJXspT1_EEEENS8_IJDpT2_EEEDpOT3_', symObjAddr: 0x8344, symBinAddr: 0x10000F754, symSize: 0x34 }
  - { offsetInCU: 0x16F51, offset: 0x3E859, size: 0x8, addend: 0x0, symName: '__ZNSt3__112__tuple_leafILm0EOZ4mainE3$_2Lb0EEC2B8ne180100IS1_vEEOT_', symObjAddr: 0x8378, symBinAddr: 0x10000F788, symSize: 0x20 }
  - { offsetInCU: 0x16F92, offset: 0x3E89A, size: 0x8, addend: 0x0, symName: '__ZNSt3__15tupleIJONS_9allocatorIZ4mainE3$_2EEEEC1B8ne180100IJS3_ELi0EEEDpOT_', symObjAddr: 0x8398, symBinAddr: 0x10000F7A8, symSize: 0x34 }
  - { offsetInCU: 0x16FDA, offset: 0x3E8E2, size: 0x8, addend: 0x0, symName: '__ZNSt3__15tupleIJONS_9allocatorIZ4mainE3$_2EEEEC2B8ne180100IJS3_ELi0EEEDpOT_', symObjAddr: 0x83CC, symBinAddr: 0x10000F7DC, symSize: 0x34 }
  - { offsetInCU: 0x17022, offset: 0x3E92A, size: 0x8, addend: 0x0, symName: '__ZNSt3__112__tuple_implINS_15__tuple_indicesIJLm0EEEEJONS_9allocatorIZ4mainE3$_2EEEEC1B8ne180100IJLm0EEJS6_EJEJEJS5_EEENS1_IJXspT_EEEENS_13__tuple_typesIJDpT0_EEENS1_IJXspT1_EEEENSA_IJDpT2_EEEDpOT3_', symObjAddr: 0x8400, symBinAddr: 0x10000F810, symSize: 0x34 }
  - { offsetInCU: 0x170B1, offset: 0x3E9B9, size: 0x8, addend: 0x0, symName: '__ZNSt3__112__tuple_implINS_15__tuple_indicesIJLm0EEEEJONS_9allocatorIZ4mainE3$_2EEEEC2B8ne180100IJLm0EEJS6_EJEJEJS5_EEENS1_IJXspT_EEEENS_13__tuple_typesIJDpT0_EEENS1_IJXspT1_EEEENSA_IJDpT2_EEEDpOT3_', symObjAddr: 0x8434, symBinAddr: 0x10000F844, symSize: 0x34 }
  - { offsetInCU: 0x17140, offset: 0x3EA48, size: 0x8, addend: 0x0, symName: '__ZNSt3__112__tuple_leafILm0EONS_9allocatorIZ4mainE3$_2EELb0EEC2B8ne180100IS3_vEEOT_', symObjAddr: 0x8468, symBinAddr: 0x10000F878, symSize: 0x20 }
  - { offsetInCU: 0x17181, offset: 0x3EA89, size: 0x8, addend: 0x0, symName: '__ZNSt3__117__compressed_pairIZ4mainE3$_2NS_9allocatorIS1_EEEC2B8ne180100IJOS1_EJOS3_EEENS_21piecewise_construct_tENS_5tupleIJDpT_EEENS9_IJDpT0_EEE', symObjAddr: 0x8488, symBinAddr: 0x10000F898, symSize: 0x54 }
  - { offsetInCU: 0x171E9, offset: 0x3EAF1, size: 0x8, addend: 0x0, symName: '__ZNSt3__122__compressed_pair_elemIZ4mainE3$_2Li0ELb0EEC2B8ne180100IJOS1_EJLm0EEEENS_21piecewise_construct_tENS_5tupleIJDpT_EEENS_15__tuple_indicesIJXspT0_EEEE', symObjAddr: 0x84DC, symBinAddr: 0x10000F8EC, symSize: 0x44 }
  - { offsetInCU: 0x1724A, offset: 0x3EB52, size: 0x8, addend: 0x0, symName: '__ZNSt3__122__compressed_pair_elemINS_9allocatorIZ4mainE3$_2EELi1ELb1EEC2B8ne180100IJOS3_EJLm0EEEENS_21piecewise_construct_tENS_5tupleIJDpT_EEENS_15__tuple_indicesIJXspT0_EEEE', symObjAddr: 0x8520, symBinAddr: 0x10000F930, symSize: 0x38 }
  - { offsetInCU: 0x172AB, offset: 0x3EBB3, size: 0x8, addend: 0x0, symName: '__ZNSt3__112__tuple_leafILm0EOZ4mainE3$_2Lb0EE3getB8ne180100Ev', symObjAddr: 0x857C, symBinAddr: 0x10000F98C, symSize: 0x18 }
  - { offsetInCU: 0x172CF, offset: 0x3EBD7, size: 0x8, addend: 0x0, symName: '__ZNSt3__112__tuple_leafILm0EONS_9allocatorIZ4mainE3$_2EELb0EE3getB8ne180100Ev', symObjAddr: 0x85B8, symBinAddr: 0x10000F9C8, symSize: 0x18 }
  - { offsetInCU: 0x172F3, offset: 0x3EBFB, size: 0x8, addend: 0x0, symName: '__ZNSt3__110__function6__funcIZ4mainE3$_2NS_9allocatorIS2_EEFvvEED2Ev', symObjAddr: 0x85D0, symBinAddr: 0x10000F9E0, symSize: 0x2C }
  - { offsetInCU: 0x1731D, offset: 0x3EC25, size: 0x8, addend: 0x0, symName: '__ZNKSt3__110__function12__alloc_funcIZ4mainE3$_2NS_9allocatorIS2_EEFvvEE15__get_allocatorB8ne180100Ev', symObjAddr: 0x85FC, symBinAddr: 0x10000FA0C, symSize: 0x24 }
  - { offsetInCU: 0x17341, offset: 0x3EC49, size: 0x8, addend: 0x0, symName: '__ZNSt3__19allocatorINS_10__function6__funcIZ4mainE3$_2NS0_IS3_EEFvvEEEE8allocateB8ne180100Em', symObjAddr: 0x8620, symBinAddr: 0x10000FA30, symSize: 0x58 }
  - { offsetInCU: 0x17382, offset: 0x3EC8A, size: 0x8, addend: 0x0, symName: '__ZNSt3__122__allocator_destructorINS_9allocatorINS_10__function6__funcIZ4mainE3$_2NS1_IS4_EEFvvEEEEEEC1B8ne180100ERS8_m', symObjAddr: 0x8678, symBinAddr: 0x10000FA88, symSize: 0x3C }
  - { offsetInCU: 0x17452, offset: 0x3ED5A, size: 0x8, addend: 0x0, symName: '__ZNSt3__110unique_ptrINS_10__function6__funcIZ4mainE3$_2NS_9allocatorIS3_EEFvvEEENS_22__allocator_destructorINS4_IS7_EEEEEC1B8ne180100ILb1EvEEPS7_NS_16__dependent_typeINS_27__unique_ptr_deleter_sfinaeISA_EEXT_EE20__good_rval_ref_typeE', symObjAddr: 0x86B4, symBinAddr: 0x10000FAC4, symSize: 0x3C }
  - { offsetInCU: 0x174A1, offset: 0x3EDA9, size: 0x8, addend: 0x0, symName: '__ZNKSt3__110unique_ptrINS_10__function6__funcIZ4mainE3$_2NS_9allocatorIS3_EEFvvEEENS_22__allocator_destructorINS4_IS7_EEEEE3getB8ne180100Ev', symObjAddr: 0x86F0, symBinAddr: 0x10000FB00, symSize: 0x28 }
  - { offsetInCU: 0x174C5, offset: 0x3EDCD, size: 0x8, addend: 0x0, symName: '__ZNKSt3__110__function12__alloc_funcIZ4mainE3$_2NS_9allocatorIS2_EEFvvEE8__targetB8ne180100Ev', symObjAddr: 0x8718, symBinAddr: 0x10000FB28, symSize: 0x24 }
  - { offsetInCU: 0x174E9, offset: 0x3EDF1, size: 0x8, addend: 0x0, symName: '__ZNSt3__110__function6__funcIZ4mainE3$_2NS_9allocatorIS2_EEFvvEEC1B8ne180100ERKS2_OS4_', symObjAddr: 0x873C, symBinAddr: 0x10000FB4C, symSize: 0x3C }
  - { offsetInCU: 0x1752F, offset: 0x3EE37, size: 0x8, addend: 0x0, symName: '__ZNSt3__110unique_ptrINS_10__function6__funcIZ4mainE3$_2NS_9allocatorIS3_EEFvvEEENS_22__allocator_destructorINS4_IS7_EEEEE7releaseB8ne180100Ev', symObjAddr: 0x8778, symBinAddr: 0x10000FB88, symSize: 0x44 }
  - { offsetInCU: 0x17562, offset: 0x3EE6A, size: 0x8, addend: 0x0, symName: '__ZNSt3__110unique_ptrINS_10__function6__funcIZ4mainE3$_2NS_9allocatorIS3_EEFvvEEENS_22__allocator_destructorINS4_IS7_EEEEED1B8ne180100Ev', symObjAddr: 0x87BC, symBinAddr: 0x10000FBCC, symSize: 0x2C }
  - { offsetInCU: 0x1758A, offset: 0x3EE92, size: 0x8, addend: 0x0, symName: '__ZNKSt3__117__compressed_pairIZ4mainE3$_2NS_9allocatorIS1_EEE6secondB8ne180100Ev', symObjAddr: 0x87E8, symBinAddr: 0x10000FBF8, symSize: 0x24 }
  - { offsetInCU: 0x175AE, offset: 0x3EEB6, size: 0x8, addend: 0x0, symName: '__ZNKSt3__122__compressed_pair_elemINS_9allocatorIZ4mainE3$_2EELi1ELb1EE5__getB8ne180100Ev', symObjAddr: 0x880C, symBinAddr: 0x10000FC1C, symSize: 0x14 }
  - { offsetInCU: 0x175DC, offset: 0x3EEE4, size: 0x8, addend: 0x0, symName: '__ZNSt3__116allocator_traitsINS_9allocatorINS_10__function6__funcIZ4mainE3$_2NS1_IS4_EEFvvEEEEEE8max_sizeB8ne180100IS8_vEEmRKS8_', symObjAddr: 0x8820, symBinAddr: 0x10000FC30, symSize: 0x24 }
  - { offsetInCU: 0x17609, offset: 0x3EF11, size: 0x8, addend: 0x0, symName: '__ZNKSt3__19allocatorINS_10__function6__funcIZ4mainE3$_2NS0_IS3_EEFvvEEEE8max_sizeB8ne180100Ev', symObjAddr: 0x8844, symBinAddr: 0x10000FC54, symSize: 0x14 }
  - { offsetInCU: 0x1762D, offset: 0x3EF35, size: 0x8, addend: 0x0, symName: '__ZNSt3__122__allocator_destructorINS_9allocatorINS_10__function6__funcIZ4mainE3$_2NS1_IS4_EEFvvEEEEEEC2B8ne180100ERS8_m', symObjAddr: 0x8858, symBinAddr: 0x10000FC68, symSize: 0x2C }
  - { offsetInCU: 0x17671, offset: 0x3EF79, size: 0x8, addend: 0x0, symName: '__ZNSt3__110unique_ptrINS_10__function6__funcIZ4mainE3$_2NS_9allocatorIS3_EEFvvEEENS_22__allocator_destructorINS4_IS7_EEEEEC2B8ne180100ILb1EvEEPS7_NS_16__dependent_typeINS_27__unique_ptr_deleter_sfinaeISA_EEXT_EE20__good_rval_ref_typeE', symObjAddr: 0x8884, symBinAddr: 0x10000FC94, symSize: 0x48 }
  - { offsetInCU: 0x176C0, offset: 0x3EFC8, size: 0x8, addend: 0x0, symName: '__ZNSt3__117__compressed_pairIPNS_10__function6__funcIZ4mainE3$_2NS_9allocatorIS3_EEFvvEEENS_22__allocator_destructorINS4_IS7_EEEEEC1B8ne180100IRS8_SB_EEOT_OT0_', symObjAddr: 0x88CC, symBinAddr: 0x10000FCDC, symSize: 0x3C }
  - { offsetInCU: 0x17716, offset: 0x3F01E, size: 0x8, addend: 0x0, symName: '__ZNSt3__117__compressed_pairIPNS_10__function6__funcIZ4mainE3$_2NS_9allocatorIS3_EEFvvEEENS_22__allocator_destructorINS4_IS7_EEEEEC2B8ne180100IRS8_SB_EEOT_OT0_', symObjAddr: 0x8908, symBinAddr: 0x10000FD18, symSize: 0x48 }
  - { offsetInCU: 0x1776C, offset: 0x3F074, size: 0x8, addend: 0x0, symName: '__ZNSt3__122__compressed_pair_elemIPNS_10__function6__funcIZ4mainE3$_2NS_9allocatorIS3_EEFvvEEELi0ELb0EEC2B8ne180100IRS8_vEEOT_', symObjAddr: 0x8950, symBinAddr: 0x10000FD60, symSize: 0x24 }
  - { offsetInCU: 0x177AC, offset: 0x3F0B4, size: 0x8, addend: 0x0, symName: '__ZNSt3__122__compressed_pair_elemINS_22__allocator_destructorINS_9allocatorINS_10__function6__funcIZ4mainE3$_2NS2_IS5_EEFvvEEEEEEELi1ELb0EEC2B8ne180100ISA_vEEOT_', symObjAddr: 0x8974, symBinAddr: 0x10000FD84, symSize: 0x24 }
  - { offsetInCU: 0x177EC, offset: 0x3F0F4, size: 0x8, addend: 0x0, symName: '__ZNKSt3__117__compressed_pairIPNS_10__function6__funcIZ4mainE3$_2NS_9allocatorIS3_EEFvvEEENS_22__allocator_destructorINS4_IS7_EEEEE5firstB8ne180100Ev', symObjAddr: 0x8998, symBinAddr: 0x10000FDA8, symSize: 0x24 }
  - { offsetInCU: 0x17810, offset: 0x3F118, size: 0x8, addend: 0x0, symName: '__ZNKSt3__122__compressed_pair_elemIPNS_10__function6__funcIZ4mainE3$_2NS_9allocatorIS3_EEFvvEEELi0ELb0EE5__getB8ne180100Ev', symObjAddr: 0x89BC, symBinAddr: 0x10000FDCC, symSize: 0x14 }
  - { offsetInCU: 0x17834, offset: 0x3F13C, size: 0x8, addend: 0x0, symName: '__ZNKSt3__117__compressed_pairIZ4mainE3$_2NS_9allocatorIS1_EEE5firstB8ne180100Ev', symObjAddr: 0x89D0, symBinAddr: 0x10000FDE0, symSize: 0x24 }
  - { offsetInCU: 0x17858, offset: 0x3F160, size: 0x8, addend: 0x0, symName: '__ZNKSt3__122__compressed_pair_elemIZ4mainE3$_2Li0ELb0EE5__getB8ne180100Ev', symObjAddr: 0x89F4, symBinAddr: 0x10000FE04, symSize: 0x14 }
  - { offsetInCU: 0x1787C, offset: 0x3F184, size: 0x8, addend: 0x0, symName: '__ZNSt3__110__function6__funcIZ4mainE3$_2NS_9allocatorIS2_EEFvvEEC2B8ne180100ERKS2_OS4_', symObjAddr: 0x8A08, symBinAddr: 0x10000FE18, symSize: 0x88 }
  - { offsetInCU: 0x178C2, offset: 0x3F1CA, size: 0x8, addend: 0x0, symName: '__ZNSt3__110__function12__alloc_funcIZ4mainE3$_2NS_9allocatorIS2_EEFvvEEC1B8ne180100ERKS2_OS4_', symObjAddr: 0x8A90, symBinAddr: 0x10000FEA0, symSize: 0x3C }
  - { offsetInCU: 0x17906, offset: 0x3F20E, size: 0x8, addend: 0x0, symName: '__ZNSt3__110__function12__alloc_funcIZ4mainE3$_2NS_9allocatorIS2_EEFvvEEC2B8ne180100ERKS2_OS4_', symObjAddr: 0x8ACC, symBinAddr: 0x10000FEDC, symSize: 0x5C }
  - { offsetInCU: 0x1794A, offset: 0x3F252, size: 0x8, addend: 0x0, symName: '__ZNSt3__117__compressed_pairIZ4mainE3$_2NS_9allocatorIS1_EEEC1B8ne180100IJRKS1_EJOS3_EEENS_21piecewise_construct_tENS_5tupleIJDpT_EEENSA_IJDpT0_EEE', symObjAddr: 0x8B54, symBinAddr: 0x10000FF64, symSize: 0x3C }
  - { offsetInCU: 0x179B2, offset: 0x3F2BA, size: 0x8, addend: 0x0, symName: '__ZNSt3__15tupleIJRKZ4mainE3$_2EEC1B8ne180100INS_4_AndELi0EEES3_', symObjAddr: 0x8B90, symBinAddr: 0x10000FFA0, symSize: 0x34 }
  - { offsetInCU: 0x179F9, offset: 0x3F301, size: 0x8, addend: 0x0, symName: '__ZNSt3__15tupleIJRKZ4mainE3$_2EEC2B8ne180100INS_4_AndELi0EEES3_', symObjAddr: 0x8BC4, symBinAddr: 0x10000FFD4, symSize: 0x34 }
  - { offsetInCU: 0x17A40, offset: 0x3F348, size: 0x8, addend: 0x0, symName: '__ZNSt3__112__tuple_implINS_15__tuple_indicesIJLm0EEEEJRKZ4mainE3$_2EEC1B8ne180100IJLm0EEJS5_EJEJEJS5_EEENS1_IJXspT_EEEENS_13__tuple_typesIJDpT0_EEENS1_IJXspT1_EEEENS9_IJDpT2_EEEDpOT3_', symObjAddr: 0x8BF8, symBinAddr: 0x100010008, symSize: 0x34 }
  - { offsetInCU: 0x17ACF, offset: 0x3F3D7, size: 0x8, addend: 0x0, symName: '__ZNSt3__112__tuple_implINS_15__tuple_indicesIJLm0EEEEJRKZ4mainE3$_2EEC2B8ne180100IJLm0EEJS5_EJEJEJS5_EEENS1_IJXspT_EEEENS_13__tuple_typesIJDpT0_EEENS1_IJXspT1_EEEENS9_IJDpT2_EEEDpOT3_', symObjAddr: 0x8C2C, symBinAddr: 0x10001003C, symSize: 0x34 }
  - { offsetInCU: 0x17B5E, offset: 0x3F466, size: 0x8, addend: 0x0, symName: '__ZNSt3__112__tuple_leafILm0ERKZ4mainE3$_2Lb0EEC2B8ne180100IS3_vEEOT_', symObjAddr: 0x8C60, symBinAddr: 0x100010070, symSize: 0x20 }
  - { offsetInCU: 0x17B9F, offset: 0x3F4A7, size: 0x8, addend: 0x0, symName: '__ZNSt3__117__compressed_pairIZ4mainE3$_2NS_9allocatorIS1_EEEC2B8ne180100IJRKS1_EJOS3_EEENS_21piecewise_construct_tENS_5tupleIJDpT_EEENSA_IJDpT0_EEE', symObjAddr: 0x8C80, symBinAddr: 0x100010090, symSize: 0x54 }
  - { offsetInCU: 0x17C07, offset: 0x3F50F, size: 0x8, addend: 0x0, symName: '__ZNSt3__122__compressed_pair_elemIZ4mainE3$_2Li0ELb0EEC2B8ne180100IJRKS1_EJLm0EEEENS_21piecewise_construct_tENS_5tupleIJDpT_EEENS_15__tuple_indicesIJXspT0_EEEE', symObjAddr: 0x8CD4, symBinAddr: 0x1000100E4, symSize: 0x44 }
  - { offsetInCU: 0x17C68, offset: 0x3F570, size: 0x8, addend: 0x0, symName: '__ZNSt3__112__tuple_leafILm0ERKZ4mainE3$_2Lb0EE3getB8ne180100Ev', symObjAddr: 0x8D3C, symBinAddr: 0x10001014C, symSize: 0x18 }
  - { offsetInCU: 0x17C8C, offset: 0x3F594, size: 0x8, addend: 0x0, symName: '__ZNSt3__117__compressed_pairIPNS_10__function6__funcIZ4mainE3$_2NS_9allocatorIS3_EEFvvEEENS_22__allocator_destructorINS4_IS7_EEEEE5firstB8ne180100Ev', symObjAddr: 0x8D54, symBinAddr: 0x100010164, symSize: 0x24 }
  - { offsetInCU: 0x17CB0, offset: 0x3F5B8, size: 0x8, addend: 0x0, symName: '__ZNSt3__122__compressed_pair_elemIPNS_10__function6__funcIZ4mainE3$_2NS_9allocatorIS3_EEFvvEEELi0ELb0EE5__getB8ne180100Ev', symObjAddr: 0x8D78, symBinAddr: 0x100010188, symSize: 0x14 }
  - { offsetInCU: 0x17CD4, offset: 0x3F5DC, size: 0x8, addend: 0x0, symName: '__ZNSt3__110unique_ptrINS_10__function6__funcIZ4mainE3$_2NS_9allocatorIS3_EEFvvEEENS_22__allocator_destructorINS4_IS7_EEEEED2B8ne180100Ev', symObjAddr: 0x8D8C, symBinAddr: 0x10001019C, symSize: 0x30 }
  - { offsetInCU: 0x17CFC, offset: 0x3F604, size: 0x8, addend: 0x0, symName: '__ZNSt3__110unique_ptrINS_10__function6__funcIZ4mainE3$_2NS_9allocatorIS3_EEFvvEEENS_22__allocator_destructorINS4_IS7_EEEEE5resetB8ne180100EPS7_', symObjAddr: 0x8DBC, symBinAddr: 0x1000101CC, symSize: 0x78 }
  - { offsetInCU: 0x17D3E, offset: 0x3F646, size: 0x8, addend: 0x0, symName: '__ZNSt3__117__compressed_pairIPNS_10__function6__funcIZ4mainE3$_2NS_9allocatorIS3_EEFvvEEENS_22__allocator_destructorINS4_IS7_EEEEE6secondB8ne180100Ev', symObjAddr: 0x8E34, symBinAddr: 0x100010244, symSize: 0x28 }
  - { offsetInCU: 0x17D62, offset: 0x3F66A, size: 0x8, addend: 0x0, symName: '__ZNSt3__122__allocator_destructorINS_9allocatorINS_10__function6__funcIZ4mainE3$_2NS1_IS4_EEFvvEEEEEEclB8ne180100EPS7_', symObjAddr: 0x8E5C, symBinAddr: 0x10001026C, symSize: 0x34 }
  - { offsetInCU: 0x17D94, offset: 0x3F69C, size: 0x8, addend: 0x0, symName: '__ZNSt3__122__compressed_pair_elemINS_22__allocator_destructorINS_9allocatorINS_10__function6__funcIZ4mainE3$_2NS2_IS5_EEFvvEEEEEEELi1ELb0EE5__getB8ne180100Ev', symObjAddr: 0x8E90, symBinAddr: 0x1000102A0, symSize: 0x14 }
  - { offsetInCU: 0x17DB8, offset: 0x3F6C0, size: 0x8, addend: 0x0, symName: '__ZNSt3__116allocator_traitsINS_9allocatorINS_10__function6__funcIZ4mainE3$_2NS1_IS4_EEFvvEEEEEE10deallocateB8ne180100ERS8_PS7_m', symObjAddr: 0x8EA4, symBinAddr: 0x1000102B4, symSize: 0x34 }
  - { offsetInCU: 0x17DF9, offset: 0x3F701, size: 0x8, addend: 0x0, symName: '__ZNSt3__19allocatorINS_10__function6__funcIZ4mainE3$_2NS0_IS3_EEFvvEEEE10deallocateB8ne180100EPS6_m', symObjAddr: 0x8ED8, symBinAddr: 0x1000102E8, symSize: 0x40 }
  - { offsetInCU: 0x17E39, offset: 0x3F741, size: 0x8, addend: 0x0, symName: '__ZNSt3__110__function6__funcIZ4mainE3$_2NS_9allocatorIS2_EEFvvEEC1B8ne180100ERKS2_RKS4_', symObjAddr: 0x8F18, symBinAddr: 0x100010328, symSize: 0x3C }
  - { offsetInCU: 0x17E7F, offset: 0x3F787, size: 0x8, addend: 0x0, symName: '__ZNSt3__110__function6__funcIZ4mainE3$_2NS_9allocatorIS2_EEFvvEEC2B8ne180100ERKS2_RKS4_', symObjAddr: 0x8F54, symBinAddr: 0x100010364, symSize: 0x88 }
  - { offsetInCU: 0x17EC5, offset: 0x3F7CD, size: 0x8, addend: 0x0, symName: '__ZNSt3__110__function12__alloc_funcIZ4mainE3$_2NS_9allocatorIS2_EEFvvEEC1B8ne180100ERKS2_RKS4_', symObjAddr: 0x8FDC, symBinAddr: 0x1000103EC, symSize: 0x3C }
  - { offsetInCU: 0x17F09, offset: 0x3F811, size: 0x8, addend: 0x0, symName: '__ZNSt3__110__function12__alloc_funcIZ4mainE3$_2NS_9allocatorIS2_EEFvvEEC2B8ne180100ERKS2_RKS4_', symObjAddr: 0x9018, symBinAddr: 0x100010428, symSize: 0x5C }
  - { offsetInCU: 0x17F4D, offset: 0x3F855, size: 0x8, addend: 0x0, symName: '__ZNSt3__117__compressed_pairIZ4mainE3$_2NS_9allocatorIS1_EEEC1B8ne180100IJRKS1_EJRKS3_EEENS_21piecewise_construct_tENS_5tupleIJDpT_EEENSB_IJDpT0_EEE', symObjAddr: 0x90A0, symBinAddr: 0x1000104B0, symSize: 0x3C }
  - { offsetInCU: 0x17FB5, offset: 0x3F8BD, size: 0x8, addend: 0x0, symName: '__ZNSt3__15tupleIJRKNS_9allocatorIZ4mainE3$_2EEEEC1B8ne180100INS_4_AndELi0EEES5_', symObjAddr: 0x90DC, symBinAddr: 0x1000104EC, symSize: 0x34 }
  - { offsetInCU: 0x17FFC, offset: 0x3F904, size: 0x8, addend: 0x0, symName: '__ZNSt3__15tupleIJRKNS_9allocatorIZ4mainE3$_2EEEEC2B8ne180100INS_4_AndELi0EEES5_', symObjAddr: 0x9110, symBinAddr: 0x100010520, symSize: 0x34 }
  - { offsetInCU: 0x18043, offset: 0x3F94B, size: 0x8, addend: 0x0, symName: '__ZNSt3__112__tuple_implINS_15__tuple_indicesIJLm0EEEEJRKNS_9allocatorIZ4mainE3$_2EEEEC1B8ne180100IJLm0EEJS7_EJEJEJS7_EEENS1_IJXspT_EEEENS_13__tuple_typesIJDpT0_EEENS1_IJXspT1_EEEENSB_IJDpT2_EEEDpOT3_', symObjAddr: 0x9144, symBinAddr: 0x100010554, symSize: 0x34 }
  - { offsetInCU: 0x180D2, offset: 0x3F9DA, size: 0x8, addend: 0x0, symName: '__ZNSt3__112__tuple_implINS_15__tuple_indicesIJLm0EEEEJRKNS_9allocatorIZ4mainE3$_2EEEEC2B8ne180100IJLm0EEJS7_EJEJEJS7_EEENS1_IJXspT_EEEENS_13__tuple_typesIJDpT0_EEENS1_IJXspT1_EEEENSB_IJDpT2_EEEDpOT3_', symObjAddr: 0x9178, symBinAddr: 0x100010588, symSize: 0x34 }
  - { offsetInCU: 0x18161, offset: 0x3FA69, size: 0x8, addend: 0x0, symName: '__ZNSt3__112__tuple_leafILm0ERKNS_9allocatorIZ4mainE3$_2EELb0EEC2B8ne180100IS5_vEEOT_', symObjAddr: 0x91AC, symBinAddr: 0x1000105BC, symSize: 0x20 }
  - { offsetInCU: 0x181A2, offset: 0x3FAAA, size: 0x8, addend: 0x0, symName: '__ZNSt3__117__compressed_pairIZ4mainE3$_2NS_9allocatorIS1_EEEC2B8ne180100IJRKS1_EJRKS3_EEENS_21piecewise_construct_tENS_5tupleIJDpT_EEENSB_IJDpT0_EEE', symObjAddr: 0x91CC, symBinAddr: 0x1000105DC, symSize: 0x54 }
  - { offsetInCU: 0x1820A, offset: 0x3FB12, size: 0x8, addend: 0x0, symName: '__ZNSt3__122__compressed_pair_elemINS_9allocatorIZ4mainE3$_2EELi1ELb1EEC2B8ne180100IJRKS3_EJLm0EEEENS_21piecewise_construct_tENS_5tupleIJDpT_EEENS_15__tuple_indicesIJXspT0_EEEE', symObjAddr: 0x9220, symBinAddr: 0x100010630, symSize: 0x38 }
  - { offsetInCU: 0x1826B, offset: 0x3FB73, size: 0x8, addend: 0x0, symName: '__ZNSt3__112__tuple_leafILm0ERKNS_9allocatorIZ4mainE3$_2EELb0EE3getB8ne180100Ev', symObjAddr: 0x927C, symBinAddr: 0x10001068C, symSize: 0x18 }
  - { offsetInCU: 0x1828F, offset: 0x3FB97, size: 0x8, addend: 0x0, symName: '__ZNSt3__110__function12__alloc_funcIZ4mainE3$_2NS_9allocatorIS2_EEFvvEE7destroyB8ne180100Ev', symObjAddr: 0x9294, symBinAddr: 0x1000106A4, symSize: 0x10 }
  - { offsetInCU: 0x182B3, offset: 0x3FBBB, size: 0x8, addend: 0x0, symName: '__ZNSt3__110__function12__alloc_funcIZ4mainE3$_2NS_9allocatorIS2_EEFvvEEclB8ne180100Ev', symObjAddr: 0x92A4, symBinAddr: 0x1000106B4, symSize: 0x28 }
  - { offsetInCU: 0x182D7, offset: 0x3FBDF, size: 0x8, addend: 0x0, symName: '__ZNSt3__128__invoke_void_return_wrapperIvLb1EE6__callB8ne180100IJRZ4mainE3$_2EEEvDpOT_', symObjAddr: 0x92CC, symBinAddr: 0x1000106DC, symSize: 0x24 }
  - { offsetInCU: 0x18305, offset: 0x3FC0D, size: 0x8, addend: 0x0, symName: '__ZNSt3__117__compressed_pairIZ4mainE3$_2NS_9allocatorIS1_EEE5firstB8ne180100Ev', symObjAddr: 0x92F0, symBinAddr: 0x100010700, symSize: 0x24 }
  - { offsetInCU: 0x18329, offset: 0x3FC31, size: 0x8, addend: 0x0, symName: '__ZZ4mainENK3$_2clEv', symObjAddr: 0x9338, symBinAddr: 0x100010748, symSize: 0x28 }
  - { offsetInCU: 0x18351, offset: 0x3FC59, size: 0x8, addend: 0x0, symName: '__ZNSt3__122__compressed_pair_elemIZ4mainE3$_2Li0ELb0EE5__getB8ne180100Ev', symObjAddr: 0x9360, symBinAddr: 0x100010770, symSize: 0x14 }
  - { offsetInCU: 0x18375, offset: 0x3FC7D, size: 0x8, addend: 0x0, symName: __ZNSt3__16vectorI8GameTextNS_9allocatorIS1_EEEC2B8ne180100Ev, symObjAddr: 0x9374, symBinAddr: 0x100010784, symSize: 0x4C }
  - { offsetInCU: 0x1839D, offset: 0x3FCA5, size: 0x8, addend: 0x0, symName: __ZNSt3__117__compressed_pairIP8GameTextNS_9allocatorIS1_EEEC1B8ne180100IDnNS_18__default_init_tagEEEOT_OT0_, symObjAddr: 0x93C0, symBinAddr: 0x1000107D0, symSize: 0x3C }
  - { offsetInCU: 0x183F3, offset: 0x3FCFB, size: 0x8, addend: 0x0, symName: __ZNSt3__117__compressed_pairIP8GameTextNS_9allocatorIS1_EEEC2B8ne180100IDnNS_18__default_init_tagEEEOT_OT0_, symObjAddr: 0x93FC, symBinAddr: 0x10001080C, symSize: 0x40 }
  - { offsetInCU: 0x18449, offset: 0x3FD51, size: 0x8, addend: 0x0, symName: __ZNSt3__122__compressed_pair_elemIP8GameTextLi0ELb0EEC2B8ne180100IDnvEEOT_, symObjAddr: 0x943C, symBinAddr: 0x10001084C, symSize: 0x1C }
  - { offsetInCU: 0x18489, offset: 0x3FD91, size: 0x8, addend: 0x0, symName: __ZNSt3__122__compressed_pair_elemINS_9allocatorI8GameTextEELi1ELb1EEC2B8ne180100ENS_18__default_init_tagE, symObjAddr: 0x9458, symBinAddr: 0x100010868, symSize: 0x2C }
  - { offsetInCU: 0x184BB, offset: 0x3FDC3, size: 0x8, addend: 0x0, symName: __ZNSt3__19allocatorI8GameTextEC2B8ne180100Ev, symObjAddr: 0x9484, symBinAddr: 0x100010894, symSize: 0x2C }
  - { offsetInCU: 0x184E3, offset: 0x3FDEB, size: 0x8, addend: 0x0, symName: __ZNSt3__116__non_trivial_ifILb1ENS_9allocatorI8GameTextEEEC2B8ne180100Ev, symObjAddr: 0x94B0, symBinAddr: 0x1000108C0, symSize: 0x14 }
  - { offsetInCU: 0x1850B, offset: 0x3FE13, size: 0x8, addend: 0x0, symName: __ZNSt3__16vectorI8GameTextNS_9allocatorIS1_EEED2B8ne180100Ev, symObjAddr: 0x94C4, symBinAddr: 0x1000108D4, symSize: 0x44 }
  - { offsetInCU: 0x18533, offset: 0x3FE3B, size: 0x8, addend: 0x0, symName: __ZNSt3__16vectorI8GameTextNS_9allocatorIS1_EEE16__destroy_vectorC1B8ne180100ERS4_, symObjAddr: 0x9508, symBinAddr: 0x100010918, symSize: 0x34 }
  - { offsetInCU: 0x1856A, offset: 0x3FE72, size: 0x8, addend: 0x0, symName: __ZNSt3__16vectorI8GameTextNS_9allocatorIS1_EEE16__destroy_vectorclB8ne180100Ev, symObjAddr: 0x953C, symBinAddr: 0x10001094C, symSize: 0x90 }
  - { offsetInCU: 0x1858E, offset: 0x3FE96, size: 0x8, addend: 0x0, symName: __ZNSt3__16vectorI8GameTextNS_9allocatorIS1_EEE16__destroy_vectorC2B8ne180100ERS4_, symObjAddr: 0x95CC, symBinAddr: 0x1000109DC, symSize: 0x20 }
  - { offsetInCU: 0x185C5, offset: 0x3FECD, size: 0x8, addend: 0x0, symName: __ZNSt3__16vectorI8GameTextNS_9allocatorIS1_EEE7__clearB8ne180100Ev, symObjAddr: 0x95EC, symBinAddr: 0x1000109FC, symSize: 0x28 }
  - { offsetInCU: 0x185E9, offset: 0x3FEF1, size: 0x8, addend: 0x0, symName: __ZNKSt3__16vectorI8GameTextNS_9allocatorIS1_EEE17__annotate_deleteB8ne180100Ev, symObjAddr: 0x9614, symBinAddr: 0x100010A24, symSize: 0x10 }
  - { offsetInCU: 0x1860D, offset: 0x3FF15, size: 0x8, addend: 0x0, symName: __ZNSt3__116allocator_traitsINS_9allocatorI8GameTextEEE10deallocateB8ne180100ERS3_PS2_m, symObjAddr: 0x9624, symBinAddr: 0x100010A34, symSize: 0x34 }
  - { offsetInCU: 0x1864E, offset: 0x3FF56, size: 0x8, addend: 0x0, symName: __ZNSt3__16vectorI8GameTextNS_9allocatorIS1_EEE7__allocB8ne180100Ev, symObjAddr: 0x9658, symBinAddr: 0x100010A68, symSize: 0x28 }
  - { offsetInCU: 0x18672, offset: 0x3FF7A, size: 0x8, addend: 0x0, symName: __ZNKSt3__16vectorI8GameTextNS_9allocatorIS1_EEE8capacityB8ne180100Ev, symObjAddr: 0x9680, symBinAddr: 0x100010A90, symSize: 0x40 }
  - { offsetInCU: 0x18696, offset: 0x3FF9E, size: 0x8, addend: 0x0, symName: __ZNSt3__16vectorI8GameTextNS_9allocatorIS1_EEE22__base_destruct_at_endB8ne180100EPS1_, symObjAddr: 0x96C0, symBinAddr: 0x100010AD0, symSize: 0x8C }
  - { offsetInCU: 0x186D8, offset: 0x3FFE0, size: 0x8, addend: 0x0, symName: __ZNSt3__116allocator_traitsINS_9allocatorI8GameTextEEE7destroyB8ne180100IS2_vEEvRS3_PT_, symObjAddr: 0x974C, symBinAddr: 0x100010B5C, symSize: 0x2C }
  - { offsetInCU: 0x18714, offset: 0x4001C, size: 0x8, addend: 0x0, symName: __ZNSt3__19allocatorI8GameTextE7destroyB8ne180100EPS1_, symObjAddr: 0x978C, symBinAddr: 0x100010B9C, symSize: 0x28 }
  - { offsetInCU: 0x18746, offset: 0x4004E, size: 0x8, addend: 0x0, symName: __ZNSt3__19allocatorI8GameTextE10deallocateB8ne180100EPS1_m, symObjAddr: 0x97B4, symBinAddr: 0x100010BC4, symSize: 0x40 }
  - { offsetInCU: 0x18786, offset: 0x4008E, size: 0x8, addend: 0x0, symName: __ZNSt3__117__compressed_pairIP8GameTextNS_9allocatorIS1_EEE6secondB8ne180100Ev, symObjAddr: 0x97F4, symBinAddr: 0x100010C04, symSize: 0x24 }
  - { offsetInCU: 0x187AA, offset: 0x400B2, size: 0x8, addend: 0x0, symName: __ZNSt3__122__compressed_pair_elemINS_9allocatorI8GameTextEELi1ELb1EE5__getB8ne180100Ev, symObjAddr: 0x9818, symBinAddr: 0x100010C28, symSize: 0x14 }
  - { offsetInCU: 0x187CE, offset: 0x400D6, size: 0x8, addend: 0x0, symName: __ZNKSt3__16vectorI8GameTextNS_9allocatorIS1_EEE9__end_capB8ne180100Ev, symObjAddr: 0x982C, symBinAddr: 0x100010C3C, symSize: 0x28 }
  - { offsetInCU: 0x187F2, offset: 0x400FA, size: 0x8, addend: 0x0, symName: __ZNKSt3__117__compressed_pairIP8GameTextNS_9allocatorIS1_EEE5firstB8ne180100Ev, symObjAddr: 0x9854, symBinAddr: 0x100010C64, symSize: 0x24 }
  - { offsetInCU: 0x18816, offset: 0x4011E, size: 0x8, addend: 0x0, symName: __ZNKSt3__122__compressed_pair_elemIP8GameTextLi0ELb0EE5__getB8ne180100Ev, symObjAddr: 0x9878, symBinAddr: 0x100010C88, symSize: 0x14 }
  - { offsetInCU: 0x1883A, offset: 0x40142, size: 0x8, addend: 0x0, symName: __ZNSt3__16vectorI8GameTextNS_9allocatorIS1_EEE9__end_capB8ne180100Ev, symObjAddr: 0x988C, symBinAddr: 0x100010C9C, symSize: 0x28 }
  - { offsetInCU: 0x1885E, offset: 0x40166, size: 0x8, addend: 0x0, symName: __ZNSt3__16vectorI8GameTextNS_9allocatorIS1_EEE22__construct_one_at_endB8ne180100IJiiRA10_Kc9SDL_ColorRP12SDL_RendererEEEvDpOT_, symObjAddr: 0x98B4, symBinAddr: 0x100010CC4, symSize: 0xB0 }
  - { offsetInCU: 0x188FB, offset: 0x40203, size: 0x8, addend: 0x0, symName: __ZNSt3__16vectorI8GameTextNS_9allocatorIS1_EEE24__emplace_back_slow_pathIJiiRA10_Kc9SDL_ColorRP12SDL_RendererEEEPS1_DpOT_, symObjAddr: 0x9964, symBinAddr: 0x100010D74, symSize: 0x108 }
  - { offsetInCU: 0x189A9, offset: 0x402B1, size: 0x8, addend: 0x0, symName: __ZNSt3__117__compressed_pairIP8GameTextNS_9allocatorIS1_EEE5firstB8ne180100Ev, symObjAddr: 0x9A6C, symBinAddr: 0x100010E7C, symSize: 0x24 }
  - { offsetInCU: 0x189CD, offset: 0x402D5, size: 0x8, addend: 0x0, symName: __ZNSt3__122__compressed_pair_elemIP8GameTextLi0ELb0EE5__getB8ne180100Ev, symObjAddr: 0x9A90, symBinAddr: 0x100010EA0, symSize: 0x14 }
  - { offsetInCU: 0x18A0A, offset: 0x40312, size: 0x8, addend: 0x0, symName: __ZNSt3__16vectorI8GameTextNS_9allocatorIS1_EEE21_ConstructTransactionC1B8ne180100ERS4_m, symObjAddr: 0x9AA4, symBinAddr: 0x100010EB4, symSize: 0x3C }
  - { offsetInCU: 0x18A50, offset: 0x40358, size: 0x8, addend: 0x0, symName: __ZNSt3__116allocator_traitsINS_9allocatorI8GameTextEEE9constructB8ne180100IS2_JiiRA10_Kc9SDL_ColorRP12SDL_RendererEvEEvRS3_PT_DpOT0_, symObjAddr: 0x9AE0, symBinAddr: 0x100010EF0, symSize: 0x54 }
  - { offsetInCU: 0x18AF6, offset: 0x403FE, size: 0x8, addend: 0x0, symName: __ZNSt3__16vectorI8GameTextNS_9allocatorIS1_EEE21_ConstructTransactionD1B8ne180100Ev, symObjAddr: 0x9B34, symBinAddr: 0x100010F44, symSize: 0x2C }
  - { offsetInCU: 0x18B1E, offset: 0x40426, size: 0x8, addend: 0x0, symName: __ZNSt3__16vectorI8GameTextNS_9allocatorIS1_EEE21_ConstructTransactionC2B8ne180100ERS4_m, symObjAddr: 0x9B60, symBinAddr: 0x100010F70, symSize: 0x44 }
  - { offsetInCU: 0x18B64, offset: 0x4046C, size: 0x8, addend: 0x0, symName: __ZNSt3__19allocatorI8GameTextE9constructB8ne180100IS1_JiiRA10_Kc9SDL_ColorRP12SDL_RendererEEEvPT_DpOT0_, symObjAddr: 0x9BA4, symBinAddr: 0x100010FB4, symSize: 0xC4 }
  - { offsetInCU: 0x18C04, offset: 0x4050C, size: 0x8, addend: 0x0, symName: __ZNSt3__16vectorI8GameTextNS_9allocatorIS1_EEE21_ConstructTransactionD2B8ne180100Ev, symObjAddr: 0x9C68, symBinAddr: 0x100011078, symSize: 0x20 }
  - { offsetInCU: 0x18C2C, offset: 0x40534, size: 0x8, addend: 0x0, symName: __ZNKSt3__16vectorI8GameTextNS_9allocatorIS1_EEE11__recommendB8ne180100Em, symObjAddr: 0x9C88, symBinAddr: 0x100011098, symSize: 0xB4 }
  - { offsetInCU: 0x18C7F, offset: 0x40587, size: 0x8, addend: 0x0, symName: __ZNKSt3__16vectorI8GameTextNS_9allocatorIS1_EEE4sizeB8ne180100Ev, symObjAddr: 0x9D3C, symBinAddr: 0x10001114C, symSize: 0x28 }
  - { offsetInCU: 0x18CA3, offset: 0x405AB, size: 0x8, addend: 0x0, symName: __ZNSt3__114__split_bufferI8GameTextRNS_9allocatorIS1_EEEC1EmmS4_, symObjAddr: 0x9D64, symBinAddr: 0x100011174, symSize: 0x44 }
  - { offsetInCU: 0x18CF7, offset: 0x405FF, size: 0x8, addend: 0x0, symName: __ZNSt3__114__split_bufferI8GameTextRNS_9allocatorIS1_EEED1Ev, symObjAddr: 0x9EB8, symBinAddr: 0x1000112C8, symSize: 0x2C }
  - { offsetInCU: 0x18D21, offset: 0x40629, size: 0x8, addend: 0x0, symName: __ZNKSt3__16vectorI8GameTextNS_9allocatorIS1_EEE8max_sizeEv, symObjAddr: 0x9EE4, symBinAddr: 0x1000112F4, symSize: 0x60 }
  - { offsetInCU: 0x18D47, offset: 0x4064F, size: 0x8, addend: 0x0, symName: __ZNKSt3__16vectorI8GameTextNS_9allocatorIS1_EEE20__throw_length_errorB8ne180100Ev, symObjAddr: 0x9F44, symBinAddr: 0x100011354, symSize: 0x1C }
  - { offsetInCU: 0x18D75, offset: 0x4067D, size: 0x8, addend: 0x0, symName: __ZNSt3__116allocator_traitsINS_9allocatorI8GameTextEEE8max_sizeB8ne180100IS3_vEEmRKS3_, symObjAddr: 0x9F60, symBinAddr: 0x100011370, symSize: 0x24 }
  - { offsetInCU: 0x18DA2, offset: 0x406AA, size: 0x8, addend: 0x0, symName: __ZNKSt3__16vectorI8GameTextNS_9allocatorIS1_EEE7__allocB8ne180100Ev, symObjAddr: 0x9F84, symBinAddr: 0x100011394, symSize: 0x28 }
  - { offsetInCU: 0x18DC6, offset: 0x406CE, size: 0x8, addend: 0x0, symName: __ZNKSt3__19allocatorI8GameTextE8max_sizeB8ne180100Ev, symObjAddr: 0x9FAC, symBinAddr: 0x1000113BC, symSize: 0x14 }
  - { offsetInCU: 0x18DEA, offset: 0x406F2, size: 0x8, addend: 0x0, symName: __ZNKSt3__117__compressed_pairIP8GameTextNS_9allocatorIS1_EEE6secondB8ne180100Ev, symObjAddr: 0x9FC0, symBinAddr: 0x1000113D0, symSize: 0x24 }
  - { offsetInCU: 0x18E0E, offset: 0x40716, size: 0x8, addend: 0x0, symName: __ZNKSt3__122__compressed_pair_elemINS_9allocatorI8GameTextEELi1ELb1EE5__getB8ne180100Ev, symObjAddr: 0x9FE4, symBinAddr: 0x1000113F4, symSize: 0x14 }
  - { offsetInCU: 0x18E32, offset: 0x4073A, size: 0x8, addend: 0x0, symName: __ZNSt3__114__split_bufferI8GameTextRNS_9allocatorIS1_EEEC2EmmS4_, symObjAddr: 0x9FF8, symBinAddr: 0x100011408, symSize: 0xD4 }
  - { offsetInCU: 0x18EA3, offset: 0x407AB, size: 0x8, addend: 0x0, symName: __ZNSt3__117__compressed_pairIP8GameTextRNS_9allocatorIS1_EEEC1B8ne180100IDnS5_EEOT_OT0_, symObjAddr: 0xA0CC, symBinAddr: 0x1000114DC, symSize: 0x3C }
  - { offsetInCU: 0x18EF9, offset: 0x40801, size: 0x8, addend: 0x0, symName: __ZNSt3__114__split_bufferI8GameTextRNS_9allocatorIS1_EEE7__allocB8ne180100Ev, symObjAddr: 0xA148, symBinAddr: 0x100011558, symSize: 0x28 }
  - { offsetInCU: 0x18F1D, offset: 0x40825, size: 0x8, addend: 0x0, symName: __ZNSt3__114__split_bufferI8GameTextRNS_9allocatorIS1_EEE9__end_capB8ne180100Ev, symObjAddr: 0xA170, symBinAddr: 0x100011580, symSize: 0x28 }
  - { offsetInCU: 0x18F41, offset: 0x40849, size: 0x8, addend: 0x0, symName: __ZNSt3__117__compressed_pairIP8GameTextRNS_9allocatorIS1_EEEC2B8ne180100IDnS5_EEOT_OT0_, symObjAddr: 0xA198, symBinAddr: 0x1000115A8, symSize: 0x48 }
  - { offsetInCU: 0x18F97, offset: 0x4089F, size: 0x8, addend: 0x0, symName: __ZNSt3__122__compressed_pair_elemIRNS_9allocatorI8GameTextEELi1ELb0EEC2B8ne180100IS4_vEEOT_, symObjAddr: 0xA1E0, symBinAddr: 0x1000115F0, symSize: 0x20 }
  - { offsetInCU: 0x18FD7, offset: 0x408DF, size: 0x8, addend: 0x0, symName: __ZNSt3__19allocatorI8GameTextE8allocateB8ne180100Em, symObjAddr: 0xA200, symBinAddr: 0x100011610, symSize: 0x58 }
  - { offsetInCU: 0x19009, offset: 0x40911, size: 0x8, addend: 0x0, symName: __ZNSt3__117__compressed_pairIP8GameTextRNS_9allocatorIS1_EEE6secondB8ne180100Ev, symObjAddr: 0xA258, symBinAddr: 0x100011668, symSize: 0x28 }
  - { offsetInCU: 0x1902D, offset: 0x40935, size: 0x8, addend: 0x0, symName: __ZNSt3__122__compressed_pair_elemIRNS_9allocatorI8GameTextEELi1ELb0EE5__getB8ne180100Ev, symObjAddr: 0xA280, symBinAddr: 0x100011690, symSize: 0x18 }
  - { offsetInCU: 0x19051, offset: 0x40959, size: 0x8, addend: 0x0, symName: __ZNSt3__117__compressed_pairIP8GameTextRNS_9allocatorIS1_EEE5firstB8ne180100Ev, symObjAddr: 0xA298, symBinAddr: 0x1000116A8, symSize: 0x24 }
  - { offsetInCU: 0x19075, offset: 0x4097D, size: 0x8, addend: 0x0, symName: __ZNSt3__116reverse_iteratorIP8GameTextEC1B8ne180100ES2_, symObjAddr: 0xA3E8, symBinAddr: 0x1000117F8, symSize: 0x34 }
  - { offsetInCU: 0x190AB, offset: 0x409B3, size: 0x8, addend: 0x0, symName: __ZNKSt3__116reverse_iteratorIP8GameTextE4baseB8ne180100Ev, symObjAddr: 0xA41C, symBinAddr: 0x10001182C, symSize: 0x18 }
  - { offsetInCU: 0x190CF, offset: 0x409D7, size: 0x8, addend: 0x0, symName: __ZNKSt3__16vectorI8GameTextNS_9allocatorIS1_EEE14__annotate_newB8ne180100Em, symObjAddr: 0xA470, symBinAddr: 0x100011880, symSize: 0x14 }
  - { offsetInCU: 0x19102, offset: 0x40A0A, size: 0x8, addend: 0x0, symName: __ZNSt3__129_AllocatorDestroyRangeReverseINS_9allocatorI8GameTextEENS_16reverse_iteratorIPS2_EEEC1B8ne180100ERS3_RS6_S9_, symObjAddr: 0xA4D0, symBinAddr: 0x1000118E0, symSize: 0x44 }
  - { offsetInCU: 0x19157, offset: 0x40A5F, size: 0x8, addend: 0x0, symName: __ZNSt3__116allocator_traitsINS_9allocatorI8GameTextEEE9constructB8ne180100IS2_JRKS2_EvEEvRS3_PT_DpOT0_, symObjAddr: 0xA55C, symBinAddr: 0x10001196C, symSize: 0x34 }
  - { offsetInCU: 0x191AD, offset: 0x40AB5, size: 0x8, addend: 0x0, symName: __ZNKSt3__116reverse_iteratorIP8GameTextEdeB8ne180100Ev, symObjAddr: 0xA5B4, symBinAddr: 0x1000119C4, symSize: 0x28 }
  - { offsetInCU: 0x191DF, offset: 0x40AE7, size: 0x8, addend: 0x0, symName: __ZNSt3__116reverse_iteratorIP8GameTextEppB8ne180100Ev, symObjAddr: 0xA5DC, symBinAddr: 0x1000119EC, symSize: 0x20 }
  - { offsetInCU: 0x19203, offset: 0x40B0B, size: 0x8, addend: 0x0, symName: __ZNSt3__128__exception_guard_exceptionsINS_29_AllocatorDestroyRangeReverseINS_9allocatorI8GameTextEENS_16reverse_iteratorIPS3_EEEEE10__completeB8ne180100Ev, symObjAddr: 0xA5FC, symBinAddr: 0x100011A0C, symSize: 0x1C }
  - { offsetInCU: 0x19227, offset: 0x40B2F, size: 0x8, addend: 0x0, symName: __ZNSt3__128__exception_guard_exceptionsINS_29_AllocatorDestroyRangeReverseINS_9allocatorI8GameTextEENS_16reverse_iteratorIPS3_EEEEED1B8ne180100Ev, symObjAddr: 0xA618, symBinAddr: 0x100011A28, symSize: 0x2C }
  - { offsetInCU: 0x1924F, offset: 0x40B57, size: 0x8, addend: 0x0, symName: __ZNSt3__128__exception_guard_exceptionsINS_29_AllocatorDestroyRangeReverseINS_9allocatorI8GameTextEENS_16reverse_iteratorIPS3_EEEEEC1B8ne180100ES8_, symObjAddr: 0xA644, symBinAddr: 0x100011A54, symSize: 0x34 }
  - { offsetInCU: 0x19286, offset: 0x40B8E, size: 0x8, addend: 0x0, symName: __ZNSt3__128__exception_guard_exceptionsINS_29_AllocatorDestroyRangeReverseINS_9allocatorI8GameTextEENS_16reverse_iteratorIPS3_EEEEEC2B8ne180100ES8_, symObjAddr: 0xA678, symBinAddr: 0x100011A88, symSize: 0x30 }
  - { offsetInCU: 0x192BD, offset: 0x40BC5, size: 0x8, addend: 0x0, symName: __ZNSt3__129_AllocatorDestroyRangeReverseINS_9allocatorI8GameTextEENS_16reverse_iteratorIPS2_EEEC2B8ne180100ERS3_RS6_S9_, symObjAddr: 0xA6A8, symBinAddr: 0x100011AB8, symSize: 0x38 }
  - { offsetInCU: 0x19312, offset: 0x40C1A, size: 0x8, addend: 0x0, symName: __ZNSt3__19allocatorI8GameTextE9constructB8ne180100IS1_JRKS1_EEEvPT_DpOT0_, symObjAddr: 0xA6E0, symBinAddr: 0x100011AF0, symSize: 0x30 }
  - { offsetInCU: 0x19366, offset: 0x40C6E, size: 0x8, addend: 0x0, symName: __ZN8GameTextC1ERKS_, symObjAddr: 0xA710, symBinAddr: 0x100011B20, symSize: 0x34 }
  - { offsetInCU: 0x19399, offset: 0x40CA1, size: 0x8, addend: 0x0, symName: __ZN8GameTextC2ERKS_, symObjAddr: 0xA744, symBinAddr: 0x100011B54, symSize: 0x4C }
  - { offsetInCU: 0x193D1, offset: 0x40CD9, size: 0x8, addend: 0x0, symName: __ZNSt3__119__to_address_helperINS_16reverse_iteratorIP8GameTextEEvE6__callB8ne180100ERKS4_, symObjAddr: 0xA790, symBinAddr: 0x100011BA0, symSize: 0x38 }
  - { offsetInCU: 0x193F3, offset: 0x40CFB, size: 0x8, addend: 0x0, symName: __ZNKSt3__116reverse_iteratorIP8GameTextEptB8ne180100Ev, symObjAddr: 0xA7C8, symBinAddr: 0x100011BD8, symSize: 0x24 }
  - { offsetInCU: 0x19417, offset: 0x40D1F, size: 0x8, addend: 0x0, symName: __ZNSt3__128__exception_guard_exceptionsINS_29_AllocatorDestroyRangeReverseINS_9allocatorI8GameTextEENS_16reverse_iteratorIPS3_EEEEED2B8ne180100Ev, symObjAddr: 0xA7EC, symBinAddr: 0x100011BFC, symSize: 0x50 }
  - { offsetInCU: 0x1943F, offset: 0x40D47, size: 0x8, addend: 0x0, symName: __ZNKSt3__129_AllocatorDestroyRangeReverseINS_9allocatorI8GameTextEENS_16reverse_iteratorIPS2_EEEclB8ne180100Ev, symObjAddr: 0xA83C, symBinAddr: 0x100011C4C, symSize: 0xB4 }
  - { offsetInCU: 0x19464, offset: 0x40D6C, size: 0x8, addend: 0x0, symName: __ZNSt3__116reverse_iteratorINS0_IP8GameTextEEEC1B8ne180100ES3_, symObjAddr: 0xA960, symBinAddr: 0x100011D70, symSize: 0x3C }
  - { offsetInCU: 0x1949A, offset: 0x40DA2, size: 0x8, addend: 0x0, symName: __ZNSt3__116reverse_iteratorINS0_IP8GameTextEEEppB8ne180100Ev, symObjAddr: 0xAA20, symBinAddr: 0x100011E30, symSize: 0x30 }
  - { offsetInCU: 0x194BE, offset: 0x40DC6, size: 0x8, addend: 0x0, symName: __ZNKSt3__116reverse_iteratorINS0_IP8GameTextEEE4baseB8ne180100Ev, symObjAddr: 0xAA50, symBinAddr: 0x100011E60, symSize: 0x24 }
  - { offsetInCU: 0x194E7, offset: 0x40DEF, size: 0x8, addend: 0x0, symName: __ZNSt3__119__to_address_helperINS_16reverse_iteratorINS1_IP8GameTextEEEEvE6__callB8ne180100ERKS5_, symObjAddr: 0xAA74, symBinAddr: 0x100011E84, symSize: 0x38 }
  - { offsetInCU: 0x19509, offset: 0x40E11, size: 0x8, addend: 0x0, symName: __ZNKSt3__116reverse_iteratorINS0_IP8GameTextEEEptB8ne180100Ev, symObjAddr: 0xAAAC, symBinAddr: 0x100011EBC, symSize: 0x24 }
  - { offsetInCU: 0x1952D, offset: 0x40E35, size: 0x8, addend: 0x0, symName: __ZNKSt3__116reverse_iteratorINS0_IP8GameTextEEEdeB8ne180100Ev, symObjAddr: 0xAAD0, symBinAddr: 0x100011EE0, symSize: 0x34 }
  - { offsetInCU: 0x1955F, offset: 0x40E67, size: 0x8, addend: 0x0, symName: __ZNSt3__116reverse_iteratorIP8GameTextEmmB8ne180100Ev, symObjAddr: 0xAB04, symBinAddr: 0x100011F14, symSize: 0x20 }
  - { offsetInCU: 0x19583, offset: 0x40E8B, size: 0x8, addend: 0x0, symName: __ZNSt3__116reverse_iteratorINS0_IP8GameTextEEEC2B8ne180100ES3_, symObjAddr: 0xAB24, symBinAddr: 0x100011F34, symSize: 0x2C }
  - { offsetInCU: 0x195B9, offset: 0x40EC1, size: 0x8, addend: 0x0, symName: __ZNSt3__116reverse_iteratorIP8GameTextEC2B8ne180100ES2_, symObjAddr: 0xAB50, symBinAddr: 0x100011F60, symSize: 0x28 }
  - { offsetInCU: 0x195EF, offset: 0x40EF7, size: 0x8, addend: 0x0, symName: __ZNSt3__114__split_bufferI8GameTextRNS_9allocatorIS1_EEED2Ev, symObjAddr: 0xAB78, symBinAddr: 0x100011F88, symSize: 0x8C }
  - { offsetInCU: 0x19619, offset: 0x40F21, size: 0x8, addend: 0x0, symName: __ZNSt3__114__split_bufferI8GameTextRNS_9allocatorIS1_EEE5clearB8ne180100Ev, symObjAddr: 0xAC04, symBinAddr: 0x100012014, symSize: 0x28 }
  - { offsetInCU: 0x1963D, offset: 0x40F45, size: 0x8, addend: 0x0, symName: __ZNKSt3__114__split_bufferI8GameTextRNS_9allocatorIS1_EEE8capacityB8ne180100Ev, symObjAddr: 0xAC2C, symBinAddr: 0x10001203C, symSize: 0x40 }
  - { offsetInCU: 0x19661, offset: 0x40F69, size: 0x8, addend: 0x0, symName: __ZNSt3__114__split_bufferI8GameTextRNS_9allocatorIS1_EEE17__destruct_at_endB8ne180100EPS1_, symObjAddr: 0xAC6C, symBinAddr: 0x10001207C, symSize: 0x2C }
  - { offsetInCU: 0x19693, offset: 0x40F9B, size: 0x8, addend: 0x0, symName: __ZNSt3__114__split_bufferI8GameTextRNS_9allocatorIS1_EEE17__destruct_at_endB8ne180100EPS1_NS_17integral_constantIbLb0EEE, symObjAddr: 0xAC98, symBinAddr: 0x1000120A8, symSize: 0x80 }
  - { offsetInCU: 0x196D1, offset: 0x40FD9, size: 0x8, addend: 0x0, symName: __ZNKSt3__114__split_bufferI8GameTextRNS_9allocatorIS1_EEE9__end_capB8ne180100Ev, symObjAddr: 0xAD18, symBinAddr: 0x100012128, symSize: 0x28 }
  - { offsetInCU: 0x196F5, offset: 0x40FFD, size: 0x8, addend: 0x0, symName: __ZNKSt3__117__compressed_pairIP8GameTextRNS_9allocatorIS1_EEE5firstB8ne180100Ev, symObjAddr: 0xAD40, symBinAddr: 0x100012150, symSize: 0x24 }
  - { offsetInCU: 0x19719, offset: 0x41021, size: 0x8, addend: 0x0, symName: __ZNSt3__16vectorI6ButtonNS_9allocatorIS1_EEE11__make_iterB8ne180100EPS1_, symObjAddr: 0xAD64, symBinAddr: 0x100012174, symSize: 0x30 }
  - { offsetInCU: 0x1974C, offset: 0x41054, size: 0x8, addend: 0x0, symName: __ZNSt3__111__wrap_iterIP6ButtonEC1B8ne180100ES2_, symObjAddr: 0xAD94, symBinAddr: 0x1000121A4, symSize: 0x34 }
  - { offsetInCU: 0x19782, offset: 0x4108A, size: 0x8, addend: 0x0, symName: __ZNSt3__111__wrap_iterIP6ButtonEC2B8ne180100ES2_, symObjAddr: 0xADC8, symBinAddr: 0x1000121D8, symSize: 0x20 }
  - { offsetInCU: 0x197B8, offset: 0x410C0, size: 0x8, addend: 0x0, symName: __ZNSt3__16vectorI8GameTextNS_9allocatorIS1_EEE11__make_iterB8ne180100EPS1_, symObjAddr: 0xADE8, symBinAddr: 0x1000121F8, symSize: 0x30 }
  - { offsetInCU: 0x197EB, offset: 0x410F3, size: 0x8, addend: 0x0, symName: __ZNSt3__111__wrap_iterIP8GameTextEC1B8ne180100ES2_, symObjAddr: 0xAE18, symBinAddr: 0x100012228, symSize: 0x34 }
  - { offsetInCU: 0x19821, offset: 0x41129, size: 0x8, addend: 0x0, symName: __ZNSt3__111__wrap_iterIP8GameTextEC2B8ne180100ES2_, symObjAddr: 0xAE4C, symBinAddr: 0x10001225C, symSize: 0x20 }
...
